 AndyOS

 Timestamp is 59e23e58 (Sat Oct 14 18:42:00 2017)

 Preferred load address is 00100000

 Start         Length     Name                   Class
 0001:00000000 00008615H .text$mn                CODE
 0002:00000000 00000000H .gfids$y                DATA
 0002:00000000 00000654H .rdata                  DATA
 0002:00000654 00000128H .rdata$r                DATA
 0002:0000077c 00000000H .edata                  DATA
 0002:0000077c 00000100H .rdata$zzzdbg           DATA
 0003:00000000 000011ecH .data                   DATA
 0003:000011ec 00000074H .data$r                 DATA
 0003:00001260 00002f56H .bss                    DATA

  Address         Publics by Value              Rva+Base       Lib:Object

 0000:00000000       ___guard_iat_table         00000000     <absolute>
 0000:00000000       ___safe_se_handler_count   00000000     <absolute>
 0000:00000000       ___safe_se_handler_table   00000000     <absolute>
 0000:00000000       ___guard_longjmp_table     00000000     <absolute>
 0000:00000000       ___guard_iat_count         00000000     <absolute>
 0000:00000000       ___dynamic_value_reloc_table 00000000     <absolute>
 0000:00000000       ___hybrid_auxiliary_iat    00000000     <absolute>
 0000:00000000       ___enclave_config          00000000     <absolute>
 0000:00000000       ___guard_fids_count        00000000     <absolute>
 0000:00000000       ___guard_flags             00000000     <absolute>
 0000:00000000       ___guard_longjmp_count     00000000     <absolute>
 0000:00000000       ___guard_fids_table        00000000     <absolute>
 0000:00000000       ___hybrid_code_map_count   00000000     <absolute>
 0000:00000000       ___hybrid_code_map         00000000     <absolute>
 0001:00000000       ?OSBoot@@YAXPAUMULTIBOOT_HEADER@@@Z 00100400 f   boot.obj
 0001:00000050       ??0Button@gui@@QAE@XZ      00100450 f   Button.obj
 0001:00000090       ?Paint@Button@gui@@UAEXXZ  00100490 f   Button.obj
 0001:00000160       ?Paint@Control@gui@@UAEXXZ 00100560 f i Button.obj
 0001:00000170       ?ReceiveSendMessage@Button@gui@@UAEXUWND_MSG@2@@Z 00100570 f   Button.obj
 0001:000001d0       ?ReceiveSendMessage@Control@gui@@UAEXUWND_MSG@2@@Z 001005d0 f i Button.obj
 0001:000001e0       ?ReadFile@FileSystem@@SAIPADAAPAD@Z 001005e0 f   FileSystem.obj
 0001:000001f0       ?Contains@Rect@@QAE_NHH@Z  001005f0 f i GUI.obj
 0001:00000230       ?CreateWindow@WindowManager@gui@@SAPAVWindow@2@PAD@Z 00100630 f   GUI.obj
 0001:000002b0       ?GetWindowAtCursor@WindowManager@gui@@CAPAVWindow@2@XZ 001006b0 f   GUI.obj
 0001:00000300       ?HandleMouseInput@WindowManager@gui@@CAXXZ 00100700 f   GUI.obj
 0001:00000720       ?Init@WindowManager@gui@@SAIXZ 00100b20 f   GUI.obj
 0001:00000820       ?PaintBackground@WindowManager@gui@@CAXXZ 00100c20 f   GUI.obj
 0001:000008c0       ?PaintCursor@WindowManager@gui@@CAXXZ 00100cc0 f   GUI.obj
 0001:00000980       ?PaintTaskbar@WindowManager@gui@@CAXXZ 00100d80 f   GUI.obj
 0001:00000a20       ?PaintWindows@WindowManager@gui@@CAXXZ 00100e20 f   GUI.obj
 0001:00000a90       ?SetFocusedWindow@WindowManager@gui@@CAXPAVWindow@2@@Z 00100e90 f   GUI.obj
 0001:00000b70       ?Start@WindowManager@gui@@SAXXZ 00100f70 f   GUI.obj
 0001:00000bb0       ?UpdateLoop@WindowManager@gui@@CAXXZ 00100fb0 f   GUI.obj
 0001:00000ec0       ?FindFile@ISO_FS@@SAPAUISO_DIRECTORY@@PAD@Z 001012c0 f   iso.obj
 0001:00000f90       ?Init@ISO_FS@@SAIXZ        00101390 f   iso.obj
 0001:00001000       ?ListFiles@ISO_FS@@SAHPAD@Z 00101400 f   iso.obj
 0001:000010a0       ?ReadFile@ISO_FS@@SAIPADAAPAD@Z 001014a0 f   iso.obj
 0001:00001190       ?ReadFile@ISO_FS@@SAIPAUISO_DIRECTORY@@AAPAD@Z 00101590 f   iso.obj
 0001:000011c0       ??0Label@gui@@QAE@XZ       001015c0 f   Label.obj
 0001:00001200       ?Paint@Label@gui@@UAEXXZ   00101600 f   Label.obj
 0001:00001230       ?Create@Mandelbrot@@SAXHH@Z 00101630 f   Mandelbrot.obj
 0001:00001660       ?stuff@@YAXXZ              00101a60 f   Mandelbrot.obj
 0001:000016e0       ?AddEntry@ARP@@SAXUMacAddress@@UIPv4Address@@@Z 00101ae0 f   arp.obj
 0001:00001770       ?Decode@ARP@@SA_NPAUARP_Header@@PAUNetPacket@@@Z 00101b70 f   arp.obj
 0001:000017e0       ?Init@ARP@@SAIXZ           00101be0 f   arp.obj
 0001:00001840       ?LookupMac@ARP@@SA?AUMacAddress@@UIPv4Address@@@Z 00101c40 f   arp.obj
 0001:000018c0       ?Receive@ARP@@SAXPAVNetInterface@@PAUNetPacket@@@Z 00101cc0 f   arp.obj
 0001:00001a00       ?Send@ARP@@SAXPAVNetInterface@@UMacAddress@@UIPv4Address@@G@Z 00101e00 f   arp.obj
 0001:00001ac0       ?SendReply@ARP@@CAXPAVNetInterface@@PAUARP_Header@@@Z 00101ec0 f   arp.obj
 0001:00001b00       ?SendRequest@ARP@@SAXPAVNetInterface@@UIPv4Address@@@Z 00101f00 f   arp.obj
 0001:00001b40       ?DoStuff@DHCP@@SAXPAVNetInterface@@UIPv4Address@@@Z 00101f40 f   dhcp.obj
 0001:00001c20       ?Receive@DHCP@@SAXPAVNetInterface@@PAUIPv4_Header@@PAUUDP_Packet@@PAUNetPacket@@@Z 00102020 f   dhcp.obj
 0001:00001c30       ?AddEntry@DNS@@SAXPADUIPv4Address@@@Z 00102030 f   dns.obj
 0001:00001cb0       ?AppendDomain@DNS@@CAPAEPAEPAD@Z 001020b0 f   dns.obj
 0001:00001d10       ?Decode@DNS@@SA_NPAUDNS_Packet@@PAUUDP_Packet@@@Z 00102110 f   dns.obj
 0001:00001d90       ?Init@DNS@@SAIXZ           00102190 f   dns.obj
 0001:00001dd0       ?LookupAddress@DNS@@SA?AUIPv4Address@@PAD@Z 001021d0 f   dns.obj
 0001:00001e10       ?ParseAnswer@DNS@@CAPAEPAUDNS_Answer@@PAE@Z 00102210 f   dns.obj
 0001:00001e70       ?ParseDomain@DNS@@CAPAEPADPAE@Z 00102270 f   dns.obj
 0001:00001eb0       ?Query@DNS@@SAXPAVNetInterface@@PAD@Z 001022b0 f   dns.obj
 0001:00001f90       ?Receive@DNS@@SAXPAVNetInterface@@PAUIPv4_Header@@PAUUDP_Packet@@PAUNetPacket@@@Z 00102390 f   dns.obj
 0001:000020f0       ?CreatePacket@Eth@@SAPAUNetPacket@@PAVNetInterface@@UMacAddress@@GI@Z 001024f0 f   eth.obj
 0001:00002160       ?Decode@Eth@@SA_NPAUEthPacket@@PAUNetPacket@@@Z 00102560 f   eth.obj
 0001:000021e0       ?Receive@Eth@@SAXPAVNetInterface@@PAUNetPacket@@@Z 001025e0 f   eth.obj
 0001:00002280       ?Send@Eth@@SAXPAVNetInterface@@PAUNetPacket@@@Z 00102680 f   eth.obj
 0001:00002290       ??0WebClient@@QAE@XZ       00102690 f   http.obj
 0001:000022a0       ?Download@WebClient@@QAEHVString@std@@AAPAE@Z 001026a0 f   http.obj
 0001:000022c0       ?Send@WebClient@@QAEXVString@std@@PAEI@Z 001026c0 f   http.obj
 0001:00002350       ?Decode@ICMP@@SA_NPAUICMP_Packet@@PAUNetPacket@@@Z 00102750 f   icmp.obj
 0001:000023c0       ?Receive@ICMP@@SAXPAVNetInterface@@PAUIPv4_Header@@PAUNetPacket@@@Z 001027c0 f   icmp.obj
 0001:00002410       ?Send@ICMP@@SAXPAVNetInterface@@PAUICMP_Packet@@UIPv4Address@@E@Z 00102810 f   icmp.obj
 0001:000024b0       ?SendReply@ICMP@@SAXPAVNetInterface@@PAUICMP_Packet@@UIPv4Address@@@Z 001028b0 f   icmp.obj
 0001:00002540       ?CreatePacket@IPv4@@SAPAUNetPacket@@PAVNetInterface@@UIPv4Address@@EI@Z 00102940 f   ipv4.obj
 0001:000026c0       ?Decode@IPv4@@SA_NPAUIPv4_Header@@PAUNetPacket@@@Z 00102ac0 f   ipv4.obj
 0001:00002730       ?Receive@IPv4@@SAXPAVNetInterface@@PAUEthPacket@@PAUNetPacket@@@Z 00102b30 f   ipv4.obj
 0001:00002830       ?Send@IPv4@@SAXPAVNetInterface@@PAUNetPacket@@@Z 00102c30 f   ipv4.obj
 0001:00002840       ?Init@Net@@SAIXZ           00102c40 f   net.obj
 0001:00002850       ?NetEthReceive@@YAXPAVNetInterface@@PAUNetPacket@@@Z 00102c50 f   net.obj
 0001:00002860       ?CreatePacket@TCP@@SAPAUNetPacket@@PAVNetInterface@@UIPv4Address@@GGEIIPAEI@Z 00102c60 f   tcp.obj
 0001:00002950       ?CreateSession@TCP@@SAPAVTcpSession@@XZ 00102d50 f   tcp.obj
 0001:00002990       ?Decode@TCP@@SA_NPAUTCP_Packet@@PAUNetPacket@@@Z 00102d90 f   tcp.obj
 0001:00002a40       ?Receive@TCP@@SAXPAVNetInterface@@PAUIPv4_Header@@PAUNetPacket@@@Z 00102e40 f   tcp.obj
 0001:00002b40       ?Send@TCP@@SAXPAVNetInterface@@PAUNetPacket@@@Z 00102f40 f   tcp.obj
 0001:00002b50       ??0TcpSession@@QAE@XZ      00102f50 f   tcpsession.obj
 0001:00002b70       ?Close@TcpSession@@QAEXXZ  00102f70 f   tcpsession.obj
 0001:00002c70       ?Connect@TcpSession@@QAEXUIPv4Address@@G@Z 00103070 f   tcpsession.obj
 0001:00002df0       ?Listen@TcpSession@@QAEXG@Z 001031f0 f   tcpsession.obj
 0001:00002e20       ?Receive@TcpSession@@QAEXPAUIPv4_Header@@PAUTCP_Packet@@@Z 00103220 f   tcpsession.obj
 0001:00002fb0       ?ReceivedData@TcpSession@@QAEXPAUIPv4_Header@@PAUTCP_Packet@@@Z 001033b0 f   tcpsession.obj
 0001:00003010       ?Reset@TcpSession@@AAEXXZ  00103410 f   tcpsession.obj
 0001:00003030       ?Send@TcpSession@@AAE_NEPAEI@Z 00103430 f   tcpsession.obj
 0001:00003080       ?SendData@TcpSession@@QAE_NPAEI@Z 00103480 f   tcpsession.obj
 0001:000030d0       ??0TcpSocket@@QAE@XZ       001034d0 f   tcpsocket.obj
 0001:000030e0       ?Close@TcpSocket@@QAE_NXZ  001034e0 f   tcpsocket.obj
 0001:00003100       ?Connect@TcpSocket@@QAE_NUIPv4Address@@G@Z 00103500 f   tcpsocket.obj
 0001:00003130       ?Listen@TcpSocket@@QAE_NG@Z 00103530 f   tcpsocket.obj
 0001:00003160       ?Send@TcpSocket@@QAE_NPAEI@Z 00103560 f   tcpsocket.obj
 0001:00003190       ?RunTextEdit@apps@@YAXXZ   00103590 f   TextEdit.obj
 0001:00003230       ?CreatePacket@UDP@@SAPAUNetPacket@@PAVNetInterface@@UIPv4Address@@GGPAEI@Z 00103630 f   udp.obj
 0001:000032f0       ?Decode@UDP@@SA_NPAUUDP_Packet@@PAUNetPacket@@@Z 001036f0 f   udp.obj
 0001:00003360       ?Receive@UDP@@SAXPAVNetInterface@@PAUIPv4_Header@@PAUNetPacket@@@Z 00103760 f   udp.obj
 0001:00003410       ?Send@UDP@@SAXPAVNetInterface@@PAUNetPacket@@@Z 00103810 f   udp.obj
 0001:00003420       ??0UdpSocket@@QAE@G@Z      00103820 f   udpsocket.obj
 0001:00003440       ??1UdpSocket@@QAE@XZ       00103840 f   udpsocket.obj
 0001:00003450       ?Receive@UdpSocket@@QAEHAAPAE@Z 00103850 f   udpsocket.obj
 0001:00003460       ?Send@UdpSocket@@QAEXUIPv4Address@@PAEG@Z 00103860 f   udpsocket.obj
 0001:000034a0       ??_H@YGXPAXIIP6EPAX0@Z@Z   001038a0 f i OS.obj
 0001:000034d0       ?Main@OS@@SAXXZ            001038d0 f   OS.obj
 0001:00003500       ?ThrowException@OS@@SAXPAD0@Z 00103900 f   OS.obj
 0001:00003510       ?Add@?$List@VString@std@@@std@@QAEXVString@2@@Z 00103910 f i string.obj
 0001:00003610       ?Split@String@std@@QAEXAAV?$List@VString@std@@@2@D@Z 00103a10 f   string.obj
 0001:00003750       ??0Window@gui@@QAE@XZ      00103b50 f   Window.obj
 0001:00003870       ?CreateControl@Window@gui@@QAEPAVControl@2@W4CONTROL_TYPE@2@PADHHHHH@Z 00103c70 f   Window.obj
 0001:000039d0       ?DispatchMessage@Window@gui@@QAEXUWND_MSG@2@@Z 00103dd0 f   Window.obj
 0001:00003a10       ?GetControlAt@Window@gui@@QAEPAVControl@2@HH@Z 00103e10 f   Window.obj
 0001:00003a70       ?GetMessage@Window@gui@@QAE?AUWND_MSG@2@XZ 00103e70 f   Window.obj
 0001:00003aa0       ?Paint@Window@gui@@QAEXXZ  00103ea0 f   Window.obj
 0001:00003b90       ?PaintControls@Window@gui@@AAEXXZ 00103f90 f   Window.obj
 0001:00003bb0       ?PaintWindow@Window@gui@@AAEXXZ 00103fb0 f   Window.obj
 0001:00003c80       ?ReceiveSendMessage@Window@gui@@QAEXUWND_MSG@2@@Z 00104080 f   Window.obj
 0001:00003ca0       ?SetFocus@Window@gui@@QAEX_N@Z 001040a0 f   Window.obj
 0001:00003cc0       ?SetState@Window@gui@@QAEXW4WINDOW_STATE@2@@Z 001040c0 f   Window.obj
 0001:00003d10       ?memcmp@@YAHPBX0I@Z        00104110 f   Lib:string.obj
 0001:00003d50       ?memcpy@@YAPAXPAX0I@Z      00104150 f   Lib:string.obj
 0001:00003d80       ?memcpy_fast_128@@YAXPAX0I@Z 00104180 f   Lib:string.obj
 0001:00003e00       ?memset16@@YAPAXPAXGI@Z    00104200 f   Lib:string.obj
 0001:00003e20       ?memset32@@YAPAXPAXII@Z    00104220 f   Lib:string.obj
 0001:00003e40       ?memset_fast_128@@YAPAXPAXII@Z 00104240 f   Lib:string.obj
 0001:00003ec0       ?strcat@@YAPADPADPBD@Z     001042c0 f   Lib:string.obj
 0001:00003ef0       ?strcmp@@YAIPBD0@Z         001042f0 f   Lib:string.obj
 0001:00003f40       ?strcpy@@YAPADPADPBD@Z     00104340 f   Lib:string.obj
 0001:00003f60       ?strlen@@YAIPBD@Z          00104360 f   Lib:string.obj
 0001:00003f80       ?strncat@@YAPADPADPBDH@Z   00104380 f   Lib:string.obj
 0001:00003fc0       _memset                    001043c0 f   Lib:string.obj
 0001:00003fe0       ?acos@@YAMM@Z              001043e0 f   Lib:math.obj
 0001:00004040       ?asin@@YAMM@Z              00104440 f   Lib:math.obj
 0001:000040a0       ?atan2@@YAMMM@Z            001044a0 f   Lib:math.obj
 0001:000041a0       ?atan@@YAMM@Z              001045a0 f   Lib:math.obj
 0001:000041d0       ?ceil@@YAHM@Z              001045d0 f   Lib:math.obj
 0001:000041f0       ?cos@@YAMM@Z               001045f0 f   Lib:math.obj
 0001:00004210       ?fact@@YAMM@Z              00104610 f   Lib:math.obj
 0001:00004250       ?floor@@YAHM@Z             00104650 f   Lib:math.obj
 0001:00004270       ?log10@@YAMM@Z             00104670 f   Lib:math.obj
 0001:00004290       ?log2@@YAMM@Z              00104690 f   Lib:math.obj
 0001:000042b0       ?log@@YAMM@Z               001046b0 f   Lib:math.obj
 0001:000042d0       ?logn@@YAMMM@Z             001046d0 f   Lib:math.obj
 0001:00004300       ?pow@@YAMMH@Z              00104700 f   Lib:math.obj
 0001:000043e0       ?rand@@YAIXZ               001047e0 f   Lib:math.obj
 0001:00004400       ?round@@YAHM@Z             00104800 f   Lib:math.obj
 0001:00004420       ?sin@@YAMM@Z               00104820 f   Lib:math.obj
 0001:00004440       ?sqrt@@YAMM@Z              00104840 f   Lib:math.obj
 0001:00004460       ?srand@@YAXI@Z             00104860 f   Lib:math.obj
 0001:00004470       ?tan@@YAMM@Z               00104870 f   Lib:math.obj
 0001:000044a0       ??2@YAPAXI@Z               001048a0 f   KERNEL:kernel.obj
 0001:000044f0       ??3@YAXPAX@Z               001048f0 f   KERNEL:kernel.obj
 0001:00004510       ??_U@YAPAXI@Z              00104910 f   KERNEL:kernel.obj
 0001:000045a0       ??_V@YAXPAX@Z              001049a0 f   KERNEL:kernel.obj
 0001:000045b0       ?Init@Kernel@@SAXPAUMULTIBOOT_INFO@@@Z 001049b0 f   KERNEL:kernel.obj
 0001:00004650       ?CreateThread@Task@@SAPAVThread@@PAX@Z 00104a50 f   KERNEL:task.obj
 0001:000046f0       ?Idle@Task@@CAXXZ          00104af0 f   KERNEL:task.obj
 0001:00004700       ?Init@Task@@SAIXZ          00104b00 f   KERNEL:task.obj
 0001:00004800       ?InsertThread@Task@@SAXPAVThread@@@Z 00104c00 f   KERNEL:task.obj
 0001:00004840       ?Schedule@Task@@CAXXZ      00104c40 f   KERNEL:task.obj
 0001:00004860       ?StartThreading@Task@@SAXXZ 00104c60 f   KERNEL:task.obj
 0001:000048a0       ?Task_ISR@Task@@CAXXZ      00104ca0 f   KERNEL:task.obj
 0001:000048e0       ?BitBlt@Drawing@@SAXUGC@@HHHH0HH_N@Z 00104ce0 f   KERNEL:drawing.obj
 0001:00004b20       ?BlendAlpha@Drawing@@CAIII@Z 00104f20 f i KERNEL:drawing.obj
 0001:00004be0       ?Clear@Drawing@@SAXIUGC@@@Z 00104fe0 f   KERNEL:drawing.obj
 0001:00004c10       ?Draw@Drawing@@SAXUGC@@@Z  00105010 f   KERNEL:drawing.obj
 0001:00004c40       ?DrawBezierCube@Drawing@@SAXPAUPoint@@HUGC@@@Z 00105040 f   KERNEL:drawing.obj
 0001:00004ea0       ?DrawBezierQuad@Drawing@@SAXPAUPoint@@HUGC@@@Z 001052a0 f   KERNEL:drawing.obj
 0001:00005040       ?DrawImage@Drawing@@SAXHHHHPAUBMP@@UGC@@@Z 00105440 f   KERNEL:drawing.obj
 0001:00005140       ?DrawLine@Drawing@@SAXHHHHIUGC@@@Z 00105540 f   KERNEL:drawing.obj
 0001:00005270       ?DrawRect@Drawing@@SAXHHHHHIUGC@@@Z 00105670 f   KERNEL:drawing.obj
 0001:00005340       ?DrawText@Drawing@@SAXHHPADIIUGC@@@Z 00105740 f   KERNEL:drawing.obj
 0001:00005450       ?DrawText@Drawing@@SAXHHPADIUGC@@@Z 00105850 f   KERNEL:drawing.obj
 0001:00005520       ?FillRect@Drawing@@SAXHHHHIUGC@@@Z 00105920 f   KERNEL:drawing.obj
 0001:000055d0       ?Init@Drawing@@SAIHHPAI@Z  001059d0 f   KERNEL:drawing.obj
 0001:00005660       ?SetPixel@Drawing@@SAXHHIUGC@@@Z 00105a60 f   KERNEL:drawing.obj
 0001:000056b0       ?Clear@Debug@@SAXI@Z       00105ab0 f   KERNEL:debug.obj
 0001:000056d0       ?Dump@Debug@@SAXPAXH_N@Z   00105ad0 f   KERNEL:debug.obj
 0001:00005870       ?Print@Debug@@SAXPADZZ     00105c70 f   KERNEL:debug.obj
 0001:00005ad0       ?Putc@Debug@@SAXD_N@Z      00105ed0 f   KERNEL:debug.obj
 0001:00005cf0       ?Init@Mouse@@SAIIIM@Z      001060f0 f   KERNEL:mouse.obj
 0001:00005fe0       ?MouseRead@Mouse@@CAEXZ    001063e0 f   KERNEL:mouse.obj
 0001:00006010       ?MouseWait@Mouse@@CAXE@Z   00106410 f   KERNEL:mouse.obj
 0001:00006050       ?MouseWrite@Mouse@@CAXE@Z  00106450 f   KERNEL:mouse.obj
 0001:000060b0       ?Mouse_ISR@Mouse@@CAXXZ    001064b0 f   KERNEL:mouse.obj
 0001:000061f0       ?Init@PIT@@SAIXZ           001065f0 f   KERNEL:pit.obj
 0001:00006230       ?PIT_ISR@PIT@@CAXXZ        00106630 f   KERNEL:pit.obj
 0001:00006240       ?ReadData@PIT@@CAEE@Z      00106640 f   KERNEL:pit.obj
 0001:00006270       ?SendData@PIT@@CAXGE@Z     00106670 f   KERNEL:pit.obj
 0001:000062b0       ?Sleep@PIT@@SAXI@Z         001066b0 f   KERNEL:pit.obj
 0001:000062d0       ?Start@PIT@@CAIXZ          001066d0 f   KERNEL:pit.obj
 0001:00006310       ?ATA_Interrupt@ATA@@CAXXZ  00106710 f   KERNEL:ata.obj
 0001:00006320       ?Init@ATA@@SAIXZ           00106720 f   KERNEL:ata.obj
 0001:00006350       ?Read@ATA@@SAIHHHAAPADH@Z  00106750 f   KERNEL:ata.obj
 0001:00006560       ?ReadSector@ATA@@CAIHHHPAD@Z 00106960 f   KERNEL:ata.obj
 0001:00006710       ?DecodeAscii@Keyboard@@CAXAAUKEY_PACKET@@@Z 00106b10 f   KERNEL:keyboard.obj
 0001:000069e0       ?DiscardLastKey@Keyboard@@SAXXZ 00106de0 f   KERNEL:keyboard.obj
 0001:000069f0       ?GetKeyDown@Keyboard@@SA_NW4KEYCODE@@@Z 00106df0 f   KERNEL:keyboard.obj
 0001:00006a00       ?GetLastKey@Keyboard@@SA?AUKEY_PACKET@@XZ 00106e00 f   KERNEL:keyboard.obj
 0001:00006a20       ?Init@Keyboard@@SAIXZ      00106e20 f   KERNEL:keyboard.obj
 0001:00006a70       ?Keyboard_ISR@Keyboard@@CAXXZ 00106e70 f   KERNEL:keyboard.obj
 0001:00006c60       ?Checksum@KNet@@SAGPAXH@Z  00107060 f   KERNEL:net.obj
 0001:00006ce0       ?ChecksumDouble@KNet@@SAGPAXH0H@Z 001070e0 f   KERNEL:net.obj
 0001:00006dc0       ?Init@KNet@@SAIXZ          001071c0 f   KERNEL:net.obj
 0001:00006e20       ?PrintIP@KNet@@SAXPADUIPv4Address@@@Z 00107220 f   KERNEL:net.obj
 0001:00006e60       ?PrintMac@KNet@@SAXPADUMacAddress@@@Z 00107260 f   KERNEL:net.obj
 0001:00006eb0       ?htonl@@YAII@Z             001072b0 f   KERNEL:net.obj
 0001:00006ec0       ?htons@@YAGG@Z             001072c0 f   KERNEL:net.obj
 0001:00006ee0       ?ntohl@@YAII@Z             001072e0 f   KERNEL:net.obj
 0001:00006ef0       ?ntohs@@YAGG@Z             001072f0 f   KERNEL:net.obj
 0001:00006f10       ?KernelPanic@Panic@@SAXPAD0@Z 00107310 f   KERNEL:panic.obj
 0001:00006fb0       ?AllocBlocks@Memory@@SAPAXI@Z 001073b0 f   KERNEL:memory.obj
 0001:000070e0       ?DeInitRegion@Memory@@SAXPAXI@Z 001074e0 f   KERNEL:memory.obj
 0001:00007130       ?FirstFree@Memory@@CAIXZ   00107530 f   KERNEL:memory.obj
 0001:00007170       ?FirstFreeNum@Memory@@CAII@Z 00107570 f   KERNEL:memory.obj
 0001:00007260       ?FreeBlocks@Memory@@SAXPAXI@Z 00107660 f   KERNEL:memory.obj
 0001:000072c0       ?Init@Memory@@SAIIPAI@Z    001076c0 f   KERNEL:memory.obj
 0001:00007340       ?InitRegion@Memory@@SAXPAXI@Z 00107740 f   KERNEL:memory.obj
 0001:00007390       ?EnableFPU@CPU@@CAIXZ      00107790 f   KERNEL:cpu.obj
 0001:000073b0       ?EnableSSE@CPU@@CAIXZ      001077b0 f   KERNEL:cpu.obj
 0001:000073e0       ?Init@CPU@@SAIXZ           001077e0 f   KERNEL:cpu.obj
 0001:00007410       ?Init@VBE@@SAIPAUVBE_MODE_INFO@@@Z 00107810 f   KERNEL:vbe.obj
 0001:00007480       ?Init@HAL@@SAIXZ           00107880 f   KERNEL:hal.obj
 0001:000074b0       ?inb@@YAEG@Z               001078b0 f   KERNEL:hal.obj
 0001:000074d0       ?inl@@YAIG@Z               001078d0 f   KERNEL:hal.obj
 0001:000074f0       ?inw@@YAGG@Z               001078f0 f   KERNEL:hal.obj
 0001:00007510       ?outb@@YAXGE@Z             00107910 f   KERNEL:hal.obj
 0001:00007520       ?outl@@YAXGI@Z             00107920 f   KERNEL:hal.obj
 0001:00007530       ?outw@@YAXGG@Z             00107930 f   KERNEL:hal.obj
 0001:00007540       ?DefaultISR@Exceptions@@SAXXZ 00107940 f   KERNEL:exceptions.obj
 0001:00007560       ?ISR0@Exceptions@@CAXXZ    00107960 f   KERNEL:exceptions.obj
 0001:00007580       ?ISR10@Exceptions@@CAXXZ   00107980 f   KERNEL:exceptions.obj
 0001:000075a0       ?ISR11@Exceptions@@CAXXZ   001079a0 f   KERNEL:exceptions.obj
 0001:000075c0       ?ISR12@Exceptions@@CAXXZ   001079c0 f   KERNEL:exceptions.obj
 0001:000075e0       ?ISR13@Exceptions@@CAXXZ   001079e0 f   KERNEL:exceptions.obj
 0001:00007600       ?ISR14@Exceptions@@CAXXZ   00107a00 f   KERNEL:exceptions.obj
 0001:00007620       ?ISR15@Exceptions@@CAXXZ   00107a20 f   KERNEL:exceptions.obj
 0001:00007640       ?ISR16@Exceptions@@CAXXZ   00107a40 f   KERNEL:exceptions.obj
 0001:00007660       ?ISR17@Exceptions@@CAXXZ   00107a60 f   KERNEL:exceptions.obj
 0001:00007680       ?ISR18@Exceptions@@CAXXZ   00107a80 f   KERNEL:exceptions.obj
 0001:000076a0       ?ISR19@Exceptions@@CAXXZ   00107aa0 f   KERNEL:exceptions.obj
 0001:000076c0       ?ISR1@Exceptions@@CAXXZ    00107ac0 f   KERNEL:exceptions.obj
 0001:000076e0       ?ISR2@Exceptions@@CAXXZ    00107ae0 f   KERNEL:exceptions.obj
 0001:00007700       ?ISR3@Exceptions@@CAXXZ    00107b00 f   KERNEL:exceptions.obj
 0001:00007720       ?ISR4@Exceptions@@CAXXZ    00107b20 f   KERNEL:exceptions.obj
 0001:00007740       ?ISR5@Exceptions@@CAXXZ    00107b40 f   KERNEL:exceptions.obj
 0001:00007760       ?ISR6@Exceptions@@CAXIII@Z 00107b60 f   KERNEL:exceptions.obj
 0001:000077e0       ?ISR7@Exceptions@@CAXXZ    00107be0 f   KERNEL:exceptions.obj
 0001:00007800       ?ISR8@Exceptions@@CAXXZ    00107c00 f   KERNEL:exceptions.obj
 0001:00007820       ?ISR9@Exceptions@@CAXXZ    00107c20 f   KERNEL:exceptions.obj
 0001:00007840       ?Init@Exceptions@@SAIXZ    00107c40 f   KERNEL:exceptions.obj
 0001:00007940       ?Create@PCI@@CAPAUPCI_DEVICE@@EEE@Z 00107d40 f   KERNEL:pci.obj
 0001:00007a00       ?GetDevice@PCI@@SAPAUPCI_DEVICE@@HHH@Z 00107e00 f   KERNEL:pci.obj
 0001:00007bb0       ?Init@PCI@@SAIXZ           00107fb0 f   KERNEL:pci.obj
 0001:00007bc0       ?Read@PCI@@CAIEEEEE@Z      00107fc0 f   KERNEL:pci.obj
 0001:00007c30       ?printdev@@YAXPAUPCI_DEVICE@@@Z 00108030 f   KERNEL:pci.obj
 0001:00007c70       ?EmptyISR@IDT@@SAXXZ       00108070 f   KERNEL:idt.obj
 0001:00007c80       ?GetIR@IDT@@SAPAUIDT_DESCRIPTOR@@I@Z 00108080 f   KERNEL:idt.obj
 0001:00007c90       ?GetVect@IDT@@SAP6AXXZH@Z  00108090 f   KERNEL:idt.obj
 0001:00007cc0       ?Init@IDT@@SAIXZ           001080c0 f   KERNEL:idt.obj
 0001:00007d30       ?SetISR@IDT@@SAIIP6AXXZ@Z  00108130 f   KERNEL:idt.obj
 0001:00007d70       ?Init@PIC@@SAIXZ           00108170 f   KERNEL:pic.obj
 0001:00007dd0       ?InterruptDone@PIC@@SAXG@Z 001081d0 f   KERNEL:pic.obj
 0001:00007e00       ?ReadData@PIC@@CAEE@Z      00108200 f   KERNEL:pic.obj
 0001:00007e30       ?SendCommand@PIC@@CAXEE@Z  00108230 f   KERNEL:pic.obj
 0001:00007e60       ?SendData@PIC@@CAXGE@Z     00108260 f   KERNEL:pic.obj
 0001:00007e89       ??1type_info@@UAE@XZ       00108289 f   LIBCMT:std_type_info_static.obj
 0001:00007e90       ??_Gtype_info@@UAEPAXI@Z   00108290 f i LIBCMT:std_type_info_static.obj
 0001:00007e90       ??_Etype_info@@UAEPAXI@Z   00108290 f i LIBCMT:std_type_info_static.obj
 0001:00007eb3       ??3@YAXPAXI@Z              001082b3 f   LIBCMT:delete_scalar_size.obj
 0001:00007ed0       ?atof@@YAMPBD@Z            001082d0 f   Lib:stdio.obj
 0001:00007f70       ?atoi@@YAHPBD@Z            00108370 f   Lib:stdio.obj
 0001:00007f90       ?ftoa@@YAPADMIPAD@Z        00108390 f   Lib:stdio.obj
 0001:000080b0       ?itoa@@YAPADHIPAD_N@Z      001084b0 f   Lib:stdio.obj
 0001:00008140       ?strtol@@YAJPBDPAPADH@Z    00108540 f   Lib:stdio.obj
 0001:00008290       ?vprintf@@YAPADPADPBDZZ    00108690 f   Lib:stdio.obj
 0001:000082b0       ?vsprintf@@YAPADPADPBDPAE@Z 001086b0 f   Lib:stdio.obj
 0002:00000004       ??_7Control@gui@@6B@       00108c04     Button.obj
 0002:00000010       ??_7Button@gui@@6B@        00108c10     Button.obj
 0002:00000018       ??_C@_0BC@HJLBEKHE@Delta?3?5?$CFi?7FPS?3?5?$CFi?$AA@ 00108c18     GUI.obj
 0002:00000030       __xmm@0000000e000000080000000000000000 00108c30     GUI.obj
 0002:00000040       ??_C@_06JJGECBPI@?$CFs?5?$CFi?6?$AA@ 00108c40     iso.obj
 0002:00000048       ??_C@_03OFAPEBGM@?$CFs?6?$AA@ 00108c48     iso.obj
 0002:00000050       ??_7Label@gui@@6B@         00108c50     Label.obj
 0002:00000058       ??_C@_03PELOGHMK@?$CFi?6?$AA@ 00108c58     Mandelbrot.obj
 0002:0000005c       ??_C@_06CMGOICJA@Start?6?$AA@ 00108c5c     Mandelbrot.obj
 0002:00000064       ??_C@_0BD@OAOOOKEK@Ticks?3?5?$CFi?7FPS?3?5?$CFi?6?$AA@ 00108c64     Mandelbrot.obj
 0002:00000078       ??_C@_09JHEKFLJE@Zoom?3?5?$CFf?6?$AA@ 00108c78     Mandelbrot.obj
 0002:00000084       __real@1adaca00            00108c84     Mandelbrot.obj
 0002:00000088       __real@3ff0000000000000    00108c88     Mandelbrot.obj
 0002:00000090       __real@4010000000000000    00108c90     Mandelbrot.obj
 0002:00000098       __real@4088000000000000    00108c98     Mandelbrot.obj
 0002:000000a0       __real@40f0000000000000    00108ca0     Mandelbrot.obj
 0002:000000a8       __real@437f0000            00108ca8     Mandelbrot.obj
 0002:000000ac       __real@447a0000            00108cac     Mandelbrot.obj
 0002:000000b0       ??_C@_0BJ@FHJFEPME@arp?3?5sending?5request?5to?5?$AA@ 00108cb0     arp.obj
 0002:000000cc       ??_C@_0BH@NFEPIOCG@arp?3?5sending?5reply?5to?5?$AA@ 00108ccc     arp.obj
 0002:000000e4       ??_C@_0BB@NPEPEJMJ@ARP?5added?5entry?5?$AA@ 00108ce4     arp.obj
 0002:000000f8       ??_C@_0O@MBFFJLEF@DHCP?5RECEIVE?6?$AA@ 00108cf8     dhcp.obj
 0002:00000108       ??_C@_0O@IJAKJLNJ@Received?5DNS?6?$AA@ 00108d08     dns.obj
 0002:00000118       ??_C@_0BF@DPFFLPFA@DNS?5added?5entry?3?5?$CFs?5?$AA@ 00108d18     dns.obj
 0002:0000012d       ??_C@_00CNPNBAHC@?$AA@     00108d2d     dns.obj
 0002:00000130       ??_C@_0M@KNKKGHNO@PARSED?5IP?3?5?$AA@ 00108d30     http.obj
 0002:0000013c       ??_C@_0BO@OHMKJDEI@Flags?3?5?$CFux?7ACK?3?5?$CFui?7SEQ?3?5?$CFui?6?$AA@ 00108d3c     tcpsession.obj
 0002:0000015c       ??_C@_0L@EIILFCEB@Connected?6?$AA@ 00108d5c     tcpsession.obj
 0002:00000168       ??_C@_07IPMAGINO@Closed?6?$AA@ 00108d68     tcpsession.obj
 0002:00000170       ??_C@_0BA@FHBAHEGN@Timeout?5closed?6?$AA@ 00108d70     tcpsession.obj
 0002:00000180       ??_C@_08MJHFHPFP@TextEdit?$AA@ 00108d80     TextEdit.obj
 0002:0000018c       ??_C@_05COLMCDPH@Hello?$AA@ 00108d8c     TextEdit.obj
 0002:00000194       ??_C@_06LKBCGDFD@Button?$AA@ 00108d94     TextEdit.obj
 0002:0000019c       ??_C@_07CDBKEHGM@Clicked?$AA@ 00108d9c     TextEdit.obj
 0002:000001a4       __real@00000000            00108da4     Lib:math.obj
 0002:000001a8       __real@3e8f5c29            00108da8     Lib:math.obj
 0002:000001ac       __real@3f800000            00108dac     Lib:math.obj
 0002:000001b0       __real@3fe0000000000000    00108db0     Lib:math.obj
 0002:000001b8       __real@3ff921fb54442eea    00108db8     Lib:math.obj
 0002:000001c0       __real@400921fb54442eea    00108dc0     Lib:math.obj
 0002:000001c8       __real@40490fdb            00108dc8     Lib:math.obj
 0002:000001cc       __real@bfc90fdb            00108dcc     Lib:math.obj
 0002:000001d0       __xmm@7fffffff7fffffff7fffffff7fffffff 00108dd0     Lib:math.obj
 0002:000001e0       __real@39800000            00108de0     KERNEL:kernel.obj
 0002:000001f0       __xmm@41f00000000000000000000000000000 00108df0     KERNEL:kernel.obj
 0002:00000200       __real@3c000000            00108e00     KERNEL:drawing.obj
 0002:00000204       ??_C@_04PFOHOKJK@?5?5?5?5?$AA@ 00108e04     KERNEL:debug.obj
 0002:0000020c       ??_C@_01CLKCMJKC@?5?$AA@   00108e0c     KERNEL:debug.obj
 0002:00000210       ??_C@_03IKGEINEE@?$CFs?5?$AA@ 00108e10     KERNEL:debug.obj
 0002:00000388       ??_C@_0P@JJOCPBNH@?$CFs?$CFi?4?$CFi?4?$CFi?4?$CFi?6?$AA@ 00108f88     KERNEL:net.obj
 0002:00000398       ??_C@_0BF@MCJEFIGG@?$CFs?$CFx?3?$CFx?3?$CFx?3?$CFx?3?$CFx?3?$CFx?6?$AA@ 00108f98     KERNEL:net.obj
 0002:000003b0       ??_C@_0BK@KHJFGGEJ@Default?5interrupt?5handler?$AA@ 00108fb0     KERNEL:exceptions.obj
 0002:000003cc       ??_C@_0BB@CAGHCAFL@Division?5by?5zero?$AA@ 00108fcc     KERNEL:exceptions.obj
 0002:000003e0       ??_C@_05GCIPIGEI@Debug?$AA@ 00108fe0     KERNEL:exceptions.obj
 0002:000003e8       ??_C@_0BH@DLMGGJOP@Non?9Maskable?5interrupt?$AA@ 00108fe8     KERNEL:exceptions.obj
 0002:00000400       ??_C@_0L@DEJAMIEF@Breakpoint?$AA@ 00109000     KERNEL:exceptions.obj
 0002:0000040c       ??_C@_08KJPBNJGC@Overflow?$AA@ 0010900c     KERNEL:exceptions.obj
 0002:00000418       ??_C@_0BF@KABNNNC@Bound?5range?5exceeded?$AA@ 00109018     KERNEL:exceptions.obj
 0002:00000430       ??_C@_0BJ@JILCCCBH@0x?$CFux?70x?$CFux?70x?$CFux?70x?$CFux?6?$AA@ 00109030     KERNEL:exceptions.obj
 0002:0000044c       ??_C@_06NIEMCLMH@0x?$CFux?6?$AA@ 0010904c     KERNEL:exceptions.obj
 0002:00000454       ??_C@_0P@GJJPHHDN@Invalid?5opcode?$AA@ 00109054     KERNEL:exceptions.obj
 0002:00000464       ??_C@_0BF@COPPNEEP@Device?5not?5available?$AA@ 00109064     KERNEL:exceptions.obj
 0002:0000047c       ??_C@_0N@EMHPBCJE@Double?5fault?$AA@ 0010907c     KERNEL:exceptions.obj
 0002:0000048c       ??_C@_0BM@FLNHCLJG@Coprocessor?5segment?5overrun?$AA@ 0010908c     KERNEL:exceptions.obj
 0002:000004a8       ??_C@_0M@OLMALBPG@Invalid?5TSS?$AA@ 001090a8     KERNEL:exceptions.obj
 0002:000004b4       ??_C@_0BE@FPPPAKKN@Segment?5not?5present?$AA@ 001090b4     KERNEL:exceptions.obj
 0002:000004c8       ??_C@_0BE@OLMOIPB@Stack?9segment?5fault?$AA@ 001090c8     KERNEL:exceptions.obj
 0002:000004dc       ??_C@_0BJ@LDJBBLLL@General?5protection?5fault?$AA@ 001090dc     KERNEL:exceptions.obj
 0002:000004f8       ??_C@_0L@JBNHOLPF@Page?5fault?$AA@ 001090f8     KERNEL:exceptions.obj
 0002:00000504       ??_C@_0O@EBPJONIA@15?5?$CIReserved?$CJ?$AA@ 00109104     KERNEL:exceptions.obj
 0002:00000514       ??_C@_0BN@OAPCMCOK@x87?5Floating?9point?5exception?$AA@ 00109114     KERNEL:exceptions.obj
 0002:00000534       ??_C@_0BA@DMDLEFCI@Alignment?5check?$AA@ 00109134     KERNEL:exceptions.obj
 0002:00000544       ??_C@_0O@LHBOKIFP@Machine?5check?$AA@ 00109144     KERNEL:exceptions.obj
 0002:00000554       ??_C@_0BO@PAHIJHOM@SIMD?5floating?9point?5exception?$AA@ 00109154     KERNEL:exceptions.obj
 0002:00000578       ??_C@_0EO@NIHBEAOP@Bus?3?5?$CFx?5Device?3?5?$CFx?5Function?3?5?$CFx?5@ 00109178     KERNEL:pci.obj
 0002:000005cc       ??_7type_info@@6B@         001091cc     LIBCMT:std_type_info_static.obj
 0002:000005d0       ??_C@_03LHCJEHON@nan?$AA@  001091d0     Lib:stdio.obj
 0002:000005d4       ??_C@_03OJHLLCGB@inf?$AA@  001091d4     Lib:stdio.obj
 0002:000005d8       ??_C@_01GBGANLPD@0?$AA@    001091d8     Lib:stdio.obj
 0002:000005e0       __real@3f1a36e2eb1c432d    001091e0     Lib:stdio.obj
 0002:000005e8       __real@41200000            001091e8     Lib:stdio.obj
 0002:000005ec       __real@bf800000            001091ec     Lib:stdio.obj
 0002:000005f0       __xmm@46454443424139383736353433323130 001091f0     Lib:stdio.obj
 0002:00000654       ??_R4Control@gui@@6B@      00109254     Button.obj
 0002:00000668       ??_R3Control@gui@@8        00109268     Button.obj
 0002:00000678       ??_R2Control@gui@@8        00109278     Button.obj
 0002:00000680       ??_R1A@?0A@EA@Control@gui@@8 00109280     Button.obj
 0002:0000069c       ??_R4Button@gui@@6B@       0010929c     Button.obj
 0002:000006b0       ??_R3Button@gui@@8         001092b0     Button.obj
 0002:000006c0       ??_R2Button@gui@@8         001092c0     Button.obj
 0002:000006cc       ??_R1A@?0A@EA@Button@gui@@8 001092cc     Button.obj
 0002:000006e8       ??_R4Label@gui@@6B@        001092e8     Label.obj
 0002:000006fc       ??_R3Label@gui@@8          001092fc     Label.obj
 0002:0000070c       ??_R2Label@gui@@8          0010930c     Label.obj
 0002:00000718       ??_R1A@?0A@EA@Label@gui@@8 00109318     Label.obj
 0002:00000734       ??_R4type_info@@6B@        00109334     LIBCMT:std_type_info_static.obj
 0002:00000748       ??_R3type_info@@8          00109348     LIBCMT:std_type_info_static.obj
 0002:00000758       ??_R2type_info@@8          00109358     LIBCMT:std_type_info_static.obj
 0002:00000760       ??_R1A@?0A@EA@type_info@@8 00109360     LIBCMT:std_type_info_static.obj
 0003:00000000       ?cursor_bitmap@gui@@3PAIA  00109600     GUI.obj
 0003:000001c0       ?col_taskbar@gui@@3IA      001097c0     GUI.obj
 0003:000001c4       ?col_desktop_bg@gui@@3IA   001097c4     GUI.obj
 0003:000001c8       ?count@@3HA                001097c8     Mandelbrot.obj
 0003:000001cc       ?col_background@gui@@3IA   001097cc     Window.obj
 0003:000001d0       ?col_foreground@gui@@3IA   001097d0     Window.obj
 0003:000001d4       ?col_title@gui@@3IA        001097d4     Window.obj
 0003:000011e0       ?color@Debug@@2IA          0010a7e0     KERNEL:debug.obj
 0003:000011e4       ?bcolor@Debug@@2IA         0010a7e4     KERNEL:debug.obj
 0003:000011e8       __fltused                  0010a7e8     LIBCMT:fltused.obj
 0003:000011ec       ??_R0?AVControl@gui@@@8    0010a7ec     Button.obj
 0003:00001208       ??_R0?AVButton@gui@@@8     0010a808     Button.obj
 0003:00001224       ??_R0?AVLabel@gui@@@8      0010a824     Label.obj
 0003:0000123c       ??_R0?AVtype_info@@@8      0010a83c     LIBCMT:std_type_info_static.obj
 0003:00001260       ?_kernel_stack@@3PADA      0010a860     boot.obj
 0003:00003200       ?hover@gui@@3_NA           0010c800     Button.obj
 0003:00003201       ?pressed@gui@@3_NA         0010c801     Button.obj
 0003:00003204       ?bmp_background@gui@@3PAUBMP@@A 0010c804     GUI.obj
 0003:00003208       ?window_count@gui@@3HA     0010c808     GUI.obj
 0003:0000320c       ?first_window@gui@@3PAVWindow@1@A 0010c80c     GUI.obj
 0003:00003210       ?last_window@gui@@3PAVWindow@1@A 0010c810     GUI.obj
 0003:00003214       ?focused_window@gui@@3PAVWindow@1@A 0010c814     GUI.obj
 0003:00003218       ?cursor_x@gui@@3HA         0010c818     GUI.obj
 0003:0000321c       ?cursor_y@gui@@3HA         0010c81c     GUI.obj
 0003:00003220       ?mouse_click_L@gui@@3_NA   0010c820     GUI.obj
 0003:00003221       ?mouse_click_R@gui@@3_NA   0010c821     GUI.obj
 0003:00003222       ?mouse_click_M@gui@@3_NA   0010c822     GUI.obj
 0003:00003223       ?window_drag@gui@@3_NA     0010c823     GUI.obj
 0003:00003224       ?mouse_click_L_info@gui@@3UMOUSE_CLICK_INFO@1@A 0010c824     GUI.obj
 0003:00003244       ?mouse_click_R_info@gui@@3UMOUSE_CLICK_INFO@1@A 0010c844     GUI.obj
 0003:00003264       ?mouse_click_M_info@gui@@3UMOUSE_CLICK_INFO@1@A 0010c864     GUI.obj
 0003:00003284       ?window_drag_info@gui@@3UWINDOW_DRAG_INFO@1@A 0010c884     GUI.obj
 0003:00003290       ?hover_window@gui@@3PAVWindow@1@A 0010c890     GUI.obj
 0003:00003294       ?hover_control@gui@@3PAVControl@1@A 0010c894     GUI.obj
 0003:00003298       ?gc_taskbar@gui@@3UGC@@A   0010c898     GUI.obj
 0003:000032b0       ?gc_background@gui@@3UGC@@A 0010c8b0     GUI.obj
 0003:000032c8       ?gc_cursor@gui@@3UGC@@A    0010c8c8     GUI.obj
 0003:000032e0       ?desc@@3PAUISO_PRIMARYDESC@@A 0010c8e0     iso.obj
 0003:000032e4       ?root@@3PAUISO_DIRECTORY@@A 0010c8e4     iso.obj
 0003:000032e8       ?tz@@3UComplex@@A          0010c8e8     Mandelbrot.obj
 0003:000032f0       ?arp_cache@ARP@@0PAUARP_TABLE_ENTRY@@A 0010c8f0     arp.obj
 0003:00003430       ?dns_server@DNS@@2UIPv4Address@@A 0010ca30     dns.obj
 0003:00003438       ?dns_cache@DNS@@0PAUDNS_TABLE_ENTRY@@A 0010ca38     dns.obj
 0003:00003638       ?sessions@TCP@@2PAPAVTcpSession@@A 0010cc38     tcp.obj
 0003:000036b8       ?mem_left@@3HA             0010ccb8     KERNEL:kernel.obj
 0003:000036bc       ?mem_ptr@@3PAEA            0010ccbc     KERNEL:kernel.obj
 0003:000036c0       ?idle_thread@@3PAVThread@@A 0010ccc0     KERNEL:task.obj
 0003:000036c4       ?current_thread@@3PAVThread@@A 0010ccc4     KERNEL:task.obj
 0003:000036c8       ?first_thread@@3PAVThread@@A 0010ccc8     KERNEL:task.obj
 0003:000036cc       ?last_thread@@3PAVThread@@A 0010cccc     KERNEL:task.obj
 0003:000036d0       ?pit_isr@@3PAXA            0010ccd0     KERNEL:task.obj
 0003:000036d4       ?screenBuffer@@3PAIA       0010ccd4     KERNEL:drawing.obj
 0003:000036d8       ?gc@Drawing@@2UGC@@A       0010ccd8     KERNEL:drawing.obj
 0003:000036f0       ?gc_direct@Drawing@@2UGC@@A 0010ccf0     KERNEL:drawing.obj
 0003:00003708       ?x@Debug@@2HA              0010cd08     KERNEL:debug.obj
 0003:0000370c       ?y@Debug@@2HA              0010cd0c     KERNEL:debug.obj
 0003:00003710       ?x@Mouse@@2HA              0010cd10     KERNEL:mouse.obj
 0003:00003714       ?y@Mouse@@2HA              0010cd14     KERNEL:mouse.obj
 0003:00003718       ?sensitivity@Mouse@@2MA    0010cd18     KERNEL:mouse.obj
 0003:0000371c       ?mouse_L@Mouse@@2_NA       0010cd1c     KERNEL:mouse.obj
 0003:0000371d       ?mouse_R@Mouse@@2_NA       0010cd1d     KERNEL:mouse.obj
 0003:0000371e       ?mouse_M@Mouse@@2_NA       0010cd1e     KERNEL:mouse.obj
 0003:0000371f       ?mouse_cycle@Mouse@@0EA    0010cd1f     KERNEL:mouse.obj
 0003:00003720       ?scroll_x@Mouse@@2HA       0010cd20     KERNEL:mouse.obj
 0003:00003724       ?scroll_y@Mouse@@2HA       0010cd24     KERNEL:mouse.obj
 0003:00003728       ?w@Mouse@@0IA              0010cd28     KERNEL:mouse.obj
 0003:0000372c       ?h@Mouse@@0IA              0010cd2c     KERNEL:mouse.obj
 0003:00003730       ?mouse_byte@Mouse@@0PACA   0010cd30     KERNEL:mouse.obj
 0003:00003734       ?initialized@Mouse@@0_NA   0010cd34     KERNEL:mouse.obj
 0003:00003738       ?ticks@PIT@@2IA            0010cd38     KERNEL:pit.obj
 0003:00003740       ?ctrl@Keyboard@@2_NA       0010cd40     KERNEL:keyboard.obj
 0003:00003741       ?shift@Keyboard@@2_NA      0010cd41     KERNEL:keyboard.obj
 0003:00003742       ?alt@Keyboard@@2_NA        0010cd42     KERNEL:keyboard.obj
 0003:00003743       ?caps@Keyboard@@2_NA       0010cd43     KERNEL:keyboard.obj
 0003:00003744       ?num@Keyboard@@2_NA        0010cd44     KERNEL:keyboard.obj
 0003:00003745       ?scroll@Keyboard@@2_NA     0010cd45     KERNEL:keyboard.obj
 0003:00003746       ?extended@@3_NA            0010cd46     KERNEL:keyboard.obj
 0003:00003747       ?scancode@@3EA             0010cd47     KERNEL:keyboard.obj
 0003:00003748       ?keystates@@3PA_NA         0010cd48     KERNEL:keyboard.obj
 0003:00003847       ?scan@@3EA                 0010ce47     KERNEL:keyboard.obj
 0003:00003848       ?last_key@@3UKEY_PACKET@@A 0010ce48     KERNEL:keyboard.obj
 0003:00003854       ?pressed@@3_NA             0010ce54     KERNEL:keyboard.obj
 0003:00003858       ?key@@3W4KEYCODE@@A        0010ce58     KERNEL:keyboard.obj
 0003:0000385c       ?intf@KNet@@2PAVNetInterface@@A 0010ce5c     KERNEL:net.obj
 0003:00003860       ?GatewayIPv4@KNet@@2UIPv4Address@@A 0010ce60     KERNEL:net.obj
 0003:00003864       ?GatewayMAC@KNet@@2UMacAddress@@A 0010ce64     KERNEL:net.obj
 0003:0000386c       ?BroadcastMAC@KNet@@2UMacAddress@@A 0010ce6c     KERNEL:net.obj
 0003:00003874       ?BroadcastIPv4@KNet@@2UIPv4Address@@A 0010ce74     KERNEL:net.obj
 0003:00003878       ?NullMAC@KNet@@2UMacAddress@@A 0010ce78     KERNEL:net.obj
 0003:00003880       ?NullIPv4@KNet@@2UIPv4Address@@A 0010ce80     KERNEL:net.obj
 0003:00003884       ?num_blocks@Memory@@2IA    0010ce84     KERNEL:memory.obj
 0003:00003888       ?num_free@Memory@@2IA      0010ce88     KERNEL:memory.obj
 0003:0000388c       ?mem_size@Memory@@2IA      0010ce8c     KERNEL:memory.obj
 0003:00003890       ?mem_map@Memory@@0PAIA     0010ce90     KERNEL:memory.obj
 0003:00003898       ?mode@VBE@@2UVBE_MODE_INFO@@A 0010ce98     KERNEL:vbe.obj
 0003:00003998       ?mem_base@@3PAIA           0010cf98     KERNEL:vbe.obj
 0003:0000399c       ?mem_max@@3PAIA            0010cf9c     KERNEL:vbe.obj
 0003:000039a0       ?mem_size@@3IA             0010cfa0     KERNEL:vbe.obj
 0003:000039a4       ?bytes_per_pixel@@3IA      0010cfa4     KERNEL:vbe.obj
 0003:000039a8       ?pixel_count@@3IA          0010cfa8     KERNEL:vbe.obj
 0003:000039b0       ?idt@IDT@@0PAUIDT_DESCRIPTOR@@A 0010cfb0     KERNEL:idt.obj
 0003:000041b0       ?idt_reg@IDT@@0UIDT_REG@@A 0010d7b0     KERNEL:idt.obj

 entry point at        0000:00000000

 Static symbols

 0002:ffff7400       __guard_fids__             00100000     LIBCMT:std_type_info_static.obj
 0001:000001b4       $LN11                      001005b4     Button.obj
 0001:00002f88       $LN28                      00103388     tcpsession.obj
 0001:00005ab8       $LN28                      00105eb8     KERNEL:debug.obj
 0001:00005cd4       $LN22                      001060d4     KERNEL:debug.obj
 0001:00006900       $LN64                      00106d00     KERNEL:keyboard.obj
 0001:00006914       $LN61                      00106d14     KERNEL:keyboard.obj
 0001:00006920       $LN65                      00106d20     KERNEL:keyboard.obj
 0001:00006950       $LN66                      00106d50     KERNEL:keyboard.obj
 0001:00006978       $LN67                      00106d78     KERNEL:keyboard.obj
 0001:000069b0       $LN62                      00106db0     KERNEL:keyboard.obj
 0001:000085d8       $LN49                      001089d8     Lib:stdio.obj
 0001:000085f4       $LN44                      001089f4     Lib:stdio.obj
 0002:00000218       ?scancodes@@3QBW4KEYCODE@@B 00108e18     KERNEL:keyboard.obj
 0003:000001d8       ?new_id@gui@@3HA           001097d8     Window.obj
 0003:000001dc       ?next@@3KA                 001097dc     Lib:math.obj
 0003:000001e0       ?DEFAULT_FONT@@3PAEA       001097e0     KERNEL:drawing.obj
