 AndyOS

 Timestamp is 59b59e8f (Sun Sep 10 22:20:31 2017)

 Preferred load address is 00100000

 Start         Length     Name                   Class
 0001:00000000 00000110H .text$di                CODE
 0001:00000110 000130d1H .text$mn                CODE
 0002:00000000 00000000H .gfids$y                DATA
 0002:00000000 000008b4H .rdata                  DATA
 0002:000008b4 0000033cH .rdata$r                DATA
 0002:00000bf0 00000000H .edata                  DATA
 0002:00000bf0 00000128H .rdata$zzzdbg           DATA
 0003:00000000 00004034H .data                   DATA
 0003:00004034 0000010cH .data$r                 DATA
 0003:00004140 0000478eH .bss                    DATA
 0004:00000000 0000002cH .CRT$XCU                DATA

  Address         Publics by Value              Rva+Base       Lib:Object

 0000:00000000       ___hybrid_code_map_count   00000000     <absolute>
 0000:00000000       ___guard_fids_table        00000000     <absolute>
 0000:00000000       ___guard_fids_count        00000000     <absolute>
 0000:00000000       ___dynamic_value_reloc_table 00000000     <absolute>
 0000:00000000       ___safe_se_handler_count   00000000     <absolute>
 0000:00000000       ___guard_flags             00000000     <absolute>
 0000:00000000       ___hybrid_code_map         00000000     <absolute>
 0000:00000000       ___enclave_config          00000000     <absolute>
 0000:00000000       ___hybrid_auxiliary_iat    00000000     <absolute>
 0000:00000000       ___guard_iat_table         00000000     <absolute>
 0000:00000000       ___guard_longjmp_count     00000000     <absolute>
 0000:00000000       ___guard_longjmp_table     00000000     <absolute>
 0000:00000000       ___guard_iat_count         00000000     <absolute>
 0000:00000000       ___safe_se_handler_table   00000000     <absolute>
 0001:00000110       ??0BMP@@QAE@PAX@Z          00100510 f   bmp.obj
 0001:00000190       ??0BMP@@QAE@PAXHH@Z        00100590 f   bmp.obj
 0001:000001e0       ?OSBoot@@YAXPAUMULTIBOOT_HEADER@@@Z 001005e0 f   boot.obj
 0001:00000220       ?ReadFile@FileSystem@@SAIPADAAPAD@Z 00100620 f   FileSystem.obj
 0001:00000230       ?FindFile@ISO_FS@@SAPAUISO_DIRECTORY@@PAD@Z 00100630 f   iso.obj
 0001:00000300       ?Init@ISO_FS@@SAIXZ        00100700 f   iso.obj
 0001:00000370       ?ListFiles@ISO_FS@@SAHPAD@Z 00100770 f   iso.obj
 0001:00000410       ?ReadFile@ISO_FS@@SAIPADAAPAD@Z 00100810 f   iso.obj
 0001:00000500       ?ReadFile@ISO_FS@@SAIPAUISO_DIRECTORY@@AAPAD@Z 00100900 f   iso.obj
 0001:00000530       ?Create@Mandelbrot@@SAXHH@Z 00100930 f   Mandelbrot.obj
 0001:000009c0       ?GiveLastIteration@@YAHNNNNHH@Z 00100dc0 f   Mandelbrot.obj
 0001:00000a40       ?stuff@@YAXXZ              00100e40 f   Mandelbrot.obj
 0001:00000ac0       ?AddEntry@ARP@@SAXUMacAddress@@UIPv4Address@@@Z 00100ec0 f   arp.obj
 0001:00000b50       ?Decode@ARP@@SA_NPAUARP_Header@@PAUNetPacket@@@Z 00100f50 f   arp.obj
 0001:00000bf0       ?Init@ARP@@SAIXZ           00100ff0 f   arp.obj
 0001:00000c50       ?LookupMac@ARP@@SA?AUMacAddress@@UIPv4Address@@@Z 00101050 f   arp.obj
 0001:00000cd0       ?Receive@ARP@@SAXPAVNetInterface@@PAUNetPacket@@@Z 001010d0 f   arp.obj
 0001:00000e10       ?Send@ARP@@SAXPAVNetInterface@@UMacAddress@@UIPv4Address@@G@Z 00101210 f   arp.obj
 0001:00000ed0       ?SendReply@ARP@@CAXPAVNetInterface@@PAUARP_Header@@@Z 001012d0 f   arp.obj
 0001:00000f10       ?SendRequest@ARP@@SAXPAVNetInterface@@UIPv4Address@@@Z 00101310 f   arp.obj
 0001:00000f50       ?DoStuff@DHCP@@SAXPAVNetInterface@@UIPv4Address@@@Z 00101350 f   dhcp.obj
 0001:00001030       ?Receive@DHCP@@SAXPAVNetInterface@@PAUIPv4_Header@@PAUUDP_Packet@@PAUNetPacket@@@Z 00101430 f   dhcp.obj
 0001:00001040       ?AddEntry@DNS@@SAXPADUIPv4Address@@@Z 00101440 f   dns.obj
 0001:000010c0       ?AppendDomain@DNS@@CAPAEPAEPAD@Z 001014c0 f   dns.obj
 0001:00001120       ?Decode@DNS@@SA_NPAUDNS_Packet@@PAUUDP_Packet@@@Z 00101520 f   dns.obj
 0001:000011a0       ?Init@DNS@@SAIXZ           001015a0 f   dns.obj
 0001:000011e0       ?LookupAddress@DNS@@SA?AUIPv4Address@@PAD@Z 001015e0 f   dns.obj
 0001:00001220       ?ParseAnswer@DNS@@CAPAEPAUDNS_Answer@@PAE@Z 00101620 f   dns.obj
 0001:00001280       ?ParseDomain@DNS@@CAPAEPADPAE@Z 00101680 f   dns.obj
 0001:000012c0       ?Query@DNS@@SAXPAVNetInterface@@PAD@Z 001016c0 f   dns.obj
 0001:000013a0       ?Receive@DNS@@SAXPAVNetInterface@@PAUIPv4_Header@@PAUUDP_Packet@@PAUNetPacket@@@Z 001017a0 f   dns.obj
 0001:00001500       ?CreatePacket@Eth@@SAPAUNetPacket@@PAVNetInterface@@UMacAddress@@GI@Z 00101900 f   eth.obj
 0001:00001570       ?Decode@Eth@@SA_NPAUEthPacket@@PAUNetPacket@@@Z 00101970 f   eth.obj
 0001:000015f0       ?Receive@Eth@@SAXPAVNetInterface@@PAUNetPacket@@@Z 001019f0 f   eth.obj
 0001:00001690       ?Send@Eth@@SAXPAVNetInterface@@PAUNetPacket@@@Z 00101a90 f   eth.obj
 0001:000016a0       ??0WebClient@@QAE@XZ       00101aa0 f   http.obj
 0001:000016b0       ?Download@WebClient@@QAEHVString@std@@AAPAE@Z 00101ab0 f   http.obj
 0001:000016d0       ?Send@WebClient@@QAEXVString@std@@PAEI@Z 00101ad0 f   http.obj
 0001:00001750       ?Decode@ICMP@@SA_NPAUICMP_Packet@@PAUNetPacket@@@Z 00101b50 f   icmp.obj
 0001:000017c0       ?Receive@ICMP@@SAXPAVNetInterface@@PAUIPv4_Header@@PAUNetPacket@@@Z 00101bc0 f   icmp.obj
 0001:00001810       ?Send@ICMP@@SAXPAVNetInterface@@PAUICMP_Packet@@UIPv4Address@@E@Z 00101c10 f   icmp.obj
 0001:000018b0       ?SendReply@ICMP@@SAXPAVNetInterface@@PAUICMP_Packet@@UIPv4Address@@@Z 00101cb0 f   icmp.obj
 0001:00001940       ?CreatePacket@IPv4@@SAPAUNetPacket@@PAVNetInterface@@UIPv4Address@@EI@Z 00101d40 f   ipv4.obj
 0001:00001ac0       ?Decode@IPv4@@SA_NPAUIPv4_Header@@PAUNetPacket@@@Z 00101ec0 f   ipv4.obj
 0001:00001b30       ?Receive@IPv4@@SAXPAVNetInterface@@PAUEthPacket@@PAUNetPacket@@@Z 00101f30 f   ipv4.obj
 0001:00001c30       ?Send@IPv4@@SAXPAVNetInterface@@PAUNetPacket@@@Z 00102030 f   ipv4.obj
 0001:00001c40       ?Init@Net@@SAIXZ           00102040 f   net.obj
 0001:00001c50       ?NetEthReceive@@YAXPAVNetInterface@@PAUNetPacket@@@Z 00102050 f   net.obj
 0001:00001c60       ?CreatePacket@TCP@@SAPAUNetPacket@@PAVNetInterface@@UIPv4Address@@GGEIIPAEI@Z 00102060 f   tcp.obj
 0001:00001d50       ?CreateSession@TCP@@SAPAVTcpSession@@XZ 00102150 f   tcp.obj
 0001:00001d90       ?Decode@TCP@@SA_NPAUTCP_Packet@@PAUNetPacket@@@Z 00102190 f   tcp.obj
 0001:00001e40       ?Receive@TCP@@SAXPAVNetInterface@@PAUIPv4_Header@@PAUNetPacket@@@Z 00102240 f   tcp.obj
 0001:00001f40       ?Send@TCP@@SAXPAVNetInterface@@PAUNetPacket@@@Z 00102340 f   tcp.obj
 0001:00001f50       ??0TcpSession@@QAE@XZ      00102350 f   tcpsession.obj
 0001:00001f70       ?Close@TcpSession@@QAEXXZ  00102370 f   tcpsession.obj
 0001:00002070       ?Connect@TcpSession@@QAEXUIPv4Address@@G@Z 00102470 f   tcpsession.obj
 0001:000021f0       ?Listen@TcpSession@@QAEXG@Z 001025f0 f   tcpsession.obj
 0001:00002220       ?Receive@TcpSession@@QAEXPAUIPv4_Header@@PAUTCP_Packet@@@Z 00102620 f   tcpsession.obj
 0001:000023b0       ?ReceivedData@TcpSession@@QAEXPAUIPv4_Header@@PAUTCP_Packet@@@Z 001027b0 f   tcpsession.obj
 0001:00002410       ?Reset@TcpSession@@AAEXXZ  00102810 f   tcpsession.obj
 0001:00002430       ?Send@TcpSession@@AAE_NEPAEI@Z 00102830 f   tcpsession.obj
 0001:00002480       ?SendData@TcpSession@@QAE_NPAEI@Z 00102880 f   tcpsession.obj
 0001:000024d0       ??0TcpSocket@@QAE@XZ       001028d0 f   tcpsocket.obj
 0001:000024e0       ?Close@TcpSocket@@QAE_NXZ  001028e0 f   tcpsocket.obj
 0001:00002500       ?Connect@TcpSocket@@QAE_NUIPv4Address@@G@Z 00102900 f   tcpsocket.obj
 0001:00002530       ?Listen@TcpSocket@@QAE_NG@Z 00102930 f   tcpsocket.obj
 0001:00002560       ?Send@TcpSocket@@QAE_NPAEI@Z 00102960 f   tcpsocket.obj
 0001:00002590       ?CreatePacket@UDP@@SAPAUNetPacket@@PAVNetInterface@@UIPv4Address@@GGPAEI@Z 00102990 f   udp.obj
 0001:00002650       ?Decode@UDP@@SA_NPAUUDP_Packet@@PAUNetPacket@@@Z 00102a50 f   udp.obj
 0001:000026c0       ?Receive@UDP@@SAXPAVNetInterface@@PAUIPv4_Header@@PAUNetPacket@@@Z 00102ac0 f   udp.obj
 0001:00002770       ?Send@UDP@@SAXPAVNetInterface@@PAUNetPacket@@@Z 00102b70 f   udp.obj
 0001:00002780       ??0UdpSocket@@QAE@G@Z      00102b80 f   udpsocket.obj
 0001:000027a0       ??1UdpSocket@@QAE@XZ       00102ba0 f   udpsocket.obj
 0001:000027b0       ?Receive@UdpSocket@@QAEHAAPAE@Z 00102bb0 f   udpsocket.obj
 0001:000027c0       ?Send@UdpSocket@@QAEXUIPv4Address@@PAEG@Z 00102bc0 f   udpsocket.obj
 0001:00002800       ??_H@YGXPAXIIP6EPAX0@Z@Z   00102c00 f i OS.obj
 0001:00002830       ?Main@OS@@SAXXZ            00102c30 f   OS.obj
 0001:00002880       ?ThrowException@OS@@SAXPAD0@Z 00102c80 f   OS.obj
 0001:00002890       ?Add@?$List@VString@std@@@std@@QAEXVString@2@@Z 00102c90 f i string.obj
 0001:00002990       ?Split@String@std@@QAEXAAV?$List@VString@std@@@2@D@Z 00102d90 f   string.obj
 0001:00002ad0       ??$CreateCamera@VCamera@@@Game@@QAEPAVCamera@@VString@std@@@Z 00102ed0 f i 3DGame:3DGame.obj
 0001:00002b40       ??$CreateObject@VMyBox@@@Game@@QAEPAVMyBox@@VString@std@@@Z 00102f40 f i 3DGame:3DGame.obj
 0001:00002bb0       ??$CreateObject@VThing@@@Game@@QAEPAVThing@@VString@std@@@Z 00102fb0 f i 3DGame:3DGame.obj
 0001:00002c20       ??0MyGame@@QAE@XZ          00103020 f   3DGame:3DGame.obj
 0001:00002e30       ??0String@std@@QAE@PAD@Z   00103230 f i 3DGame:3DGame.obj
 0001:00002ea0       ??1String@std@@QAE@XZ      001032a0 f i 3DGame:3DGame.obj
 0001:00002ed0       ??$CreateComponent@VMeshComponent@@@GameObject@@QAEPAVMeshComponent@@VString@std@@@Z 001032d0 f i 3DGame:MyBox.obj
 0001:00002f40       ??$CreateComponent@VRigidbody@@@GameObject@@QAEPAVRigidbody@@VString@std@@@Z 00103340 f i 3DGame:MyBox.obj
 0001:00002fb0       ??0MyBox@@QAE@XZ           001033b0 f   3DGame:MyBox.obj
 0001:000030f0       ?Start@GameObject@@UAEXXZ  001034f0 f i 3DGame:MyBox.obj
 0001:00003110       ?Update@GameObject@@UAEXM@Z 00103510 f i 3DGame:MyBox.obj
 0001:00003130       ??0Thing@@QAE@XZ           00103530 f   3DGame:Thing.obj
 0001:00003280       ??DVector3@@QAE?AU0@M@Z    00103680 f i 3DGame:Thing.obj
 0001:000032e0       ?Update@Thing@@UAEXM@Z     001036e0 f   3DGame:Thing.obj
 0001:00003620       ?AddTexture@GL@gl@@SAHPAVBMP@@@Z 00103a20 f   GL:GL.obj
 0001:00003650       ?BindTexture@GL@gl@@SAXH@Z 00103a50 f   GL:GL.obj
 0001:00003660       ?Clear@GL@gl@@SAXI@Z       00103a60 f   GL:GL.obj
 0001:000036a0       ?Draw@GL@gl@@SAXHH@Z       00103aa0 f   GL:GL.obj
 0001:000039f0       ?Init@GL@gl@@SAIXZ         00103df0 f   GL:GL.obj
 0001:00003a30       ?LightSource@GL@gl@@SAHUVector4@2@@Z 00103e30 f   GL:GL.obj
 0001:00003ab0       ?LoadIdentity@GL@gl@@SAXXZ 00103eb0 f   GL:GL.obj
 0001:00003b10       ?LoadMatrix@GL@gl@@SAXABUMatrix4@2@@Z 00103f10 f   GL:GL.obj
 0001:00003b60       ?MatrixMode@GL@gl@@SAXW4GLMatrixMode@@@Z 00103f60 f   GL:GL.obj
 0001:00003b70       ?MulMatrix@GL@gl@@SAXABUMatrix4@2@@Z 00103f70 f   GL:GL.obj
 0001:00003bd0       ?PopMatrix@GL@gl@@SAXXZ    00103fd0 f   GL:GL.obj
 0001:00003c30       ?PushMatrix@GL@gl@@SAXXZ   00104030 f   GL:GL.obj
 0001:00003c90       ?SelectedMatrix@GL@gl@@CAAAUMatrix4@2@XZ 00104090 f   GL:GL.obj
 0001:00003cb0       ?SwapBuffers@GL@gl@@SAXXZ  001040b0 f   GL:GL.obj
 0001:00003cc0       ?VertexPointer@GL@gl@@SAXPAUVertex@2@@Z 001040c0 f   GL:GL.obj
 0001:00003cd0       ??0Vector4@gl@@QAE@MMMM@Z  001040d0 f   GL:Vector4.obj
 0001:00003d00       ??0Vector4@gl@@QAE@XZ      00104100 f   GL:Vector4.obj
 0001:00003d20       ?Cross@Vector4@gl@@SA?AU12@ABU12@0@Z 00104120 f   GL:Vector4.obj
 0001:00003d90       ?Dot@Vector4@gl@@SAMABU12@0@Z 00104190 f   GL:Vector4.obj
 0001:00003db0       ??0Matrix4@gl@@QAE@QAM@Z   001041b0 f   GL:Matrix4.obj
 0001:00003e20       ??0Matrix4@gl@@QAE@XZ      00104220 f   GL:Matrix4.obj
 0001:00003e50       ??Dgl@@YA?AUMatrix4@0@ABU10@0@Z 00104250 f i GL:Matrix4.obj
 0001:00003e90       ??Dgl@@YA?AUMatrix4@0@ABU10@ABM@Z 00104290 f i GL:Matrix4.obj
 0001:00003ed0       ??Dgl@@YA?AUVector4@0@ABUMatrix4@0@ABU10@@Z 001042d0 f i GL:Matrix4.obj
 0001:00003fd0       ??Ggl@@YA?AUMatrix4@0@ABU10@0@Z 001043d0 f i GL:Matrix4.obj
 0001:00004040       ??Hgl@@YA?AUMatrix4@0@ABU10@0@Z 00104440 f i GL:Matrix4.obj
 0001:000040b0       ??XMatrix4@gl@@QAEAAU01@ABM@Z 001044b0 f i GL:Matrix4.obj
 0001:00004150       ??XMatrix4@gl@@QAEAAU01@ABU01@@Z 00104550 f i GL:Matrix4.obj
 0001:00004500       ?CreateOrthographicProjection@Matrix4@gl@@SA?AU12@MMMMMM@Z 00104900 f   GL:Matrix4.obj
 0001:000045b0       ?CreatePerspectiveProjection@Matrix4@gl@@SA?AU12@MMMMM@Z 001049b0 f   GL:Matrix4.obj
 0001:00004690       ?CreateRotation@Matrix4@gl@@SA?AU12@UVector4@2@@Z 00104a90 f   GL:Matrix4.obj
 0001:000048a0       ?CreateScale@Matrix4@gl@@SA?AU12@UVector4@2@@Z 00104ca0 f   GL:Matrix4.obj
 0001:000048e0       ?CreateTransformation@Matrix4@gl@@SA?AU12@UVector4@2@00@Z 00104ce0 f   GL:Matrix4.obj
 0001:00004c20       ?CreateTranslation@Matrix4@gl@@SA?AU12@UVector4@2@@Z 00105020 f   GL:Matrix4.obj
 0001:00004c80       ?CreateView@Matrix4@gl@@SA?AU12@UVector4@2@000@Z 00105080 f   GL:Matrix4.obj
 0001:00004da0       ?GetElementsPointer@Matrix4@gl@@QAEPAMXZ 001051a0 f   GL:Matrix4.obj
 0001:00004db0       ?Inverse@Matrix4@gl@@QAE?AU12@XZ 001051b0 f   GL:Matrix4.obj
 0001:00005580       ??0ColRGB@gl@@QAE@I@Z      00105980 f   GL:Color.obj
 0001:00005610       ??0ColRGB@gl@@QAE@MMM@Z    00105a10 f   GL:Color.obj
 0001:00005670       ??0ColRGB@gl@@QAE@XZ       00105a70 f   GL:Color.obj
 0001:00005690       ??DColRGB@gl@@QAE?AU01@M@Z 00105a90 f   GL:Color.obj
 0001:00005700       ??HColRGB@gl@@QAE?AU01@U01@@Z 00105b00 f   GL:Color.obj
 0001:00005770       ??XColRGB@gl@@QAE?AU01@M@Z 00105b70 f   GL:Color.obj
 0001:000057e0       ?Luminosity@ColRGB@gl@@QAEMXZ 00105be0 f   GL:Color.obj
 0001:00005830       ?ToInt@ColRGB@gl@@QAEIXZ   00105c30 f   GL:Color.obj
 0001:00005870       ??0Vertex@gl@@QAE@MMMUColRGB@1@UVector4@1@@Z 00105c70 f   GL:Vertex.obj
 0001:00005910       ??0Vertex@gl@@QAE@XZ       00105d10 f   GL:Vertex.obj
 0001:00005960       ?MulMatrix@Vertex@gl@@QAEXABUMatrix4@2@@Z 00105d60 f   GL:Vertex.obj
 0001:00005a30       ?DrawTriangle2@Rasterizer@gl@@SAXAAUVertex@2@00PAVBMP@@@Z 00105e30 f   GL:Rasterizer.obj
 0001:00006110       ?DrawTriangle@Rasterizer@gl@@SAXAAUVertex@2@00PAVBMP@@@Z 00106510 f   GL:Rasterizer.obj
 0001:000064a0       ?EdgeFunction@gl@@YAMABUVector4@1@00@Z 001068a0 f   GL:Rasterizer.obj
 0001:000064f0       ?EdgeFunction@gl@@YAMABUVector4@1@0MM@Z 001068f0 f   GL:Rasterizer.obj
 0001:00006540       ?Init@Rasterizer@gl@@SAIXZ 00106940 f   GL:Rasterizer.obj
 0001:00006570       ??0GEngine@@QAE@XZ         00106970 f   GameEngine:Engine.obj
 0001:000065e0       ?Add@?$List@PAVRigidbody@@@std@@QAEXPAVRigidbody@@@Z 001069e0 f i GameEngine:Engine.obj
 0001:00006660       ?Collision@GEngine@@AAEXXZ 00106a60 f   GameEngine:Engine.obj
 0001:00007890       ?Render@GEngine@@AAEXXZ    00107c90 f   GameEngine:Engine.obj
 0001:00007d40       ?Rotate@Quaternion@@QAEXUVector3@@M@Z 00108140 f i GameEngine:Engine.obj
 0001:00007eb0       ?StartGame@GEngine@@QAEXPAVGame@@@Z 001082b0 f   GameEngine:Engine.obj
 0001:00008280       ?Update@GEngine@@AAEXXZ    00108680 f   GameEngine:Engine.obj
 0001:000091f0       ??0Vector3@@QAE@MMM@Z      001095f0 f   GameEngine:Vector3.obj
 0001:00009220       ??0Vector3@@QAE@XZ         00109620 f   GameEngine:Vector3.obj
 0001:00009240       ?Cross@Vector3@@SA?AU1@ABU1@0@Z 00109640 f   GameEngine:Vector3.obj
 0001:000092a0       ?Dot@Vector3@@SAMABU1@0@Z  001096a0 f   GameEngine:Vector3.obj
 0001:000092c0       ?EulerAngles@Vector3@@QAE?AU1@XZ 001096c0 f   GameEngine:Vector3.obj
 0001:00009370       ?ToVector4@Vector3@@QAE?AUVector4@gl@@XZ 00109770 f   GameEngine:Vector3.obj
 0001:000093b0       ??0Quaternion@@QAE@XZ      001097b0 f   GameEngine:Quaternion.obj
 0001:000093d0       ?FromAxisAngle@Quaternion@@SA?AU1@ABUVector3@@M@Z 001097d0 f   GameEngine:Quaternion.obj
 0001:00009470       ?FromEuler@Quaternion@@SA?AU1@ABUVector3@@@Z 00109870 f   GameEngine:Quaternion.obj
 0001:000095e0       ??0GameObject@@QAE@XZ      001099e0 f   GameEngine:GameObject.obj
 0001:00009690       ??A?$List@PAVComponent@@@std@@QAEAAPAVComponent@@H@Z 00109a90 f i GameEngine:GameObject.obj
 0001:000096e0       ?Add@?$List@PAVComponent@@@std@@QAEXPAVComponent@@@Z 00109ae0 f i GameEngine:GameObject.obj
 0001:00009760       ?Add@?$List@PAVMeshComponent@@@std@@QAEXPAVMeshComponent@@@Z 00109b60 f i GameEngine:GameObject.obj
 0001:000097e0       ?AddComponent@GameObject@@QAEXPAVComponent@@@Z 00109be0 f   GameEngine:GameObject.obj
 0001:00009960       ?Contains@String@std@@QAE_NV12@@Z 00109d60 f i GameEngine:GameObject.obj
 0001:000099c0       ?GetComponent@GameObject@@QAEPAVComponent@@VString@std@@@Z 00109dc0 f   GameEngine:GameObject.obj
 0001:00009a60       ?GetName@GameObject@@QAE?AVString@std@@XZ 00109e60 f   GameEngine:GameObject.obj
 0001:00009a70       ?GetWorldPosition@GameObject@@QAE?AUVector3@@XZ 00109e70 f   GameEngine:GameObject.obj
 0001:00009af0       ?GetWorldRotation@GameObject@@QAE?AUQuaternion@@XZ 00109ef0 f   GameEngine:GameObject.obj
 0001:00009b10       ?GetWorldScale@GameObject@@QAE?AUVector3@@XZ 00109f10 f   GameEngine:GameObject.obj
 0001:00009b90       ?GetWorldTransform@GameObject@@QAE?AUTransform@@XZ 00109f90 f   GameEngine:GameObject.obj
 0001:00009ca0       ?SetName@GameObject@@QAEXVString@std@@@Z 0010a0a0 f   GameEngine:GameObject.obj
 0001:00009cc0       ??0Camera@@QAE@XZ          0010a0c0 f   GameEngine:Camera.obj
 0001:00009ce0       ??0Game@@QAE@XZ            0010a0e0 f   GameEngine:Game.obj
 0001:00009d30       ?Add@?$List@PAVCamera@@@std@@QAEXPAVCamera@@@Z 0010a130 f i GameEngine:Game.obj
 0001:00009db0       ?Add@?$List@PAVGameObject@@@std@@QAEXPAVGameObject@@@Z 0010a1b0 f i GameEngine:Game.obj
 0001:00009e30       ?Add@?$List@PAVLightSource@@@std@@QAEXPAVLightSource@@@Z 0010a230 f i GameEngine:Game.obj
 0001:00009eb0       ?AddCamera@Game@@QAEXPAVCamera@@@Z 0010a2b0 f   GameEngine:Game.obj
 0001:00009f30       ?AddLightSource@Game@@QAEXPAVLightSource@@@Z 0010a330 f   GameEngine:Game.obj
 0001:00009fb0       ?AddObject@Game@@QAEXPAVGameObject@@@Z 0010a3b0 f   GameEngine:Game.obj
 0001:0000a030       ?GetActiveCamera@Game@@QAEPAVCamera@@XZ 0010a430 f   GameEngine:Game.obj
 0001:0000a040       ?GetCamera@Game@@QAEPAVCamera@@VString@std@@@Z 0010a440 f   GameEngine:Game.obj
 0001:0000a0e0       ?GetLightSource@Game@@QAEPAVLightSource@@VString@std@@@Z 0010a4e0 f   GameEngine:Game.obj
 0001:0000a180       ?GetObject@Game@@QAEPAVGameObject@@VString@std@@@Z 0010a580 f   GameEngine:Game.obj
 0001:0000a290       ?SetActiveCamera@Game@@QAEXPAVCamera@@@Z 0010a690 f   GameEngine:Game.obj
 0001:0000a2a0       ??0Component@@QAE@XZ       0010a6a0 f   GameEngine:Component.obj
 0001:0000a2d0       ?GetName@Component@@QAE?AVString@std@@XZ 0010a6d0 f   GameEngine:Component.obj
 0001:0000a2e0       ?SetName@Component@@QAEXVString@std@@@Z 0010a6e0 f   GameEngine:Component.obj
 0001:0000a300       ?Start@Component@@UAEXXZ   0010a700 f i GameEngine:Component.obj
 0001:0000a310       ?Update@Component@@UAEXM@Z 0010a710 f i GameEngine:Component.obj
 0001:0000a320       ??0MeshComponent@@QAE@XZ   0010a720 f   GameEngine:MeshComponent.obj
 0001:0000a350       ?Update@MeshComponent@@UAEXM@Z 0010a750 f   GameEngine:MeshComponent.obj
 0001:0000a360       ??0Rigidbody@@QAE@XZ       0010a760 f   GameEngine:Rigidbody.obj
 0001:0000a3b0       ?AddImpulse@Rigidbody@@QAEXUVector3@@@Z 0010a7b0 f   GameEngine:Rigidbody.obj
 0001:0000a3f0       ?AddImpulseAt@Rigidbody@@QAEXUVector3@@0@Z 0010a7f0 f   GameEngine:Rigidbody.obj
 0001:0000a400       ?Speed@Rigidbody@@QAEMXZ   0010a800 f   GameEngine:Rigidbody.obj
 0001:0000a440       ?SpeedSquared@Rigidbody@@QAEMXZ 0010a840 f   GameEngine:Rigidbody.obj
 0001:0000a490       ?Start@Rigidbody@@UAEXXZ   0010a890 f   GameEngine:Rigidbody.obj
 0001:0000a4a0       ?Update@Rigidbody@@UAEXM@Z 0010a8a0 f   GameEngine:Rigidbody.obj
 0001:0000a8c0       ??0BoxCollider@@QAE@XZ     0010acc0 f   GameEngine:BoxCollider.obj
 0001:0000a8e0       ?GetEdge@Collider@@UAEPAUVector3@@H@Z 0010ace0 f i GameEngine:BoxCollider.obj
 0001:0000aa40       ?GetEdgeDir@Collider@@UAE?AUVector3@@H@Z 0010ae40 f i GameEngine:BoxCollider.obj
 0001:0000aad0       ?GetFaceDir@Collider@@UAE?AUVector3@@H@Z 0010aed0 f i GameEngine:BoxCollider.obj
 0001:0000abf0       ?GetVertex@Collider@@UAE?AUVector3@@H@Z 0010aff0 f i GameEngine:BoxCollider.obj
 0001:0000ad30       ?IsColliding@BoxCollider@@QAE_NPAV1@AAUVector3@@@Z 0010b130 f   GameEngine:BoxCollider.obj
 0001:0000ad40       ?SupportFunction@@YA?AUVector3@@U1@UTransform@@@Z 0010b140 f   GameEngine:BoxCollider.obj
 0001:0000b110       ?cross_aba@@YA?AUVector3@@ABU1@0@Z 0010b510 f i GameEngine:BoxCollider.obj
 0001:0000b140       ?update@@YA_NUVector3@@@Z  0010b540 f   GameEngine:BoxCollider.obj
 0001:0000bb30       ?LoadModel@ModelLoader@@SAPAVModel3D@@PADW4Format3D@@@Z 0010bf30 f   GameEngine:ModelLoader.obj
 0001:0000bbb0       ??0Matrix3@@QAE@QAM@Z      0010bfb0 f   GameEngine:Matrix3.obj
 0001:0000bbf0       ??0Matrix3@@QAE@XZ         0010bff0 f   GameEngine:Matrix3.obj
 0001:0000bc40       ??D@YA?AUMatrix3@@ABU0@0@Z 0010c040 f i GameEngine:Matrix3.obj
 0001:0000be10       ??D@YA?AUMatrix3@@ABU0@ABM@Z 0010c210 f i GameEngine:Matrix3.obj
 0001:0000beb0       ??D@YA?AUVector3@@ABUMatrix3@@ABU0@@Z 0010c2b0 f i GameEngine:Matrix3.obj
 0001:0000bf50       ??G@YA?AUMatrix3@@ABU0@0@Z 0010c350 f i GameEngine:Matrix3.obj
 0001:0000c000       ??H@YA?AUMatrix3@@ABU0@0@Z 0010c400 f i GameEngine:Matrix3.obj
 0001:0000c0b0       ?CreateRotation@Matrix3@@SA?AU1@UVector3@@@Z 0010c4b0 f   GameEngine:Matrix3.obj
 0001:0000c240       ?Inverse@Matrix3@@QAE?AU1@XZ 0010c640 f   GameEngine:Matrix3.obj
 0001:0000c450       ?Transpose@Matrix3@@QAE?AU1@XZ 0010c850 f   GameEngine:Matrix3.obj
 0001:0000c4a0       ??0Transform@@QAE@UVector3@@UQuaternion@@0@Z 0010c8a0 f   GameEngine:Transform.obj
 0001:0000c4f0       ??0Transform@@QAE@XZ       0010c8f0 f   GameEngine:Transform.obj
 0001:0000c570       ??DQuaternion@@QAEAAUVector3@@AAU1@@Z 0010c970 f i GameEngine:Transform.obj
 0001:0000c6b0       ?GetForwardVector@Transform@@QAE?AUVector3@@XZ 0010cab0 f   GameEngine:Transform.obj
 0001:0000c700       ?GetRightVector@Transform@@QAE?AUVector3@@XZ 0010cb00 f   GameEngine:Transform.obj
 0001:0000c750       ?GetUpVector@Transform@@QAE?AUVector3@@XZ 0010cb50 f   GameEngine:Transform.obj
 0001:0000c7a0       ?Rotate@Transform@@QAEXUQuaternion@@@Z 0010cba0 f   GameEngine:Transform.obj
 0001:0000c8a0       ?Rotate@Transform@@QAEXUVector3@@M@Z 0010cca0 f   GameEngine:Transform.obj
 0001:0000cac0       ?Scale@Transform@@QAEXUVector3@@@Z 0010cec0 f   GameEngine:Transform.obj
 0001:0000cb00       ?ToString@Transform@@QAEPADPAD@Z 0010cf00 f   GameEngine:Transform.obj
 0001:0000cbb0       ?Translate@Transform@@QAEXUVector3@@@Z 0010cfb0 f   GameEngine:Transform.obj
 0001:0000cbf0       ??0Manifold@@QAE@XZ        0010cff0 f i GameEngine:Collision.obj
 0001:0000cc10       ?CollisionPoint@Collision@@QAEPAUManifold@@AAVRigidbody@@0AAH@Z 0010d010 f   GameEngine:Collision.obj
 0001:0000e060       ?GetInterval@Collision@@QAEXAAVRigidbody@@UVector3@@AAM2@Z 0010e460 f   GameEngine:Collision.obj
 0001:0000e2e0       ?Normalized@Vector3@@QAE?AU1@XZ 0010e6e0 f i GameEngine:Collision.obj
 0001:0000e3a0       ?TestIntersection@Collision@@QAE_NAAVRigidbody@@0PAUVector3@@AAPAUManifold@@AAH@Z 0010e7a0 f   GameEngine:Collision.obj
 0001:0000e9f0       ?closest_Point@Collision@@QAEXUVector3@@000AAU2@1@Z 0010edf0 f   GameEngine:Collision.obj
 0001:0000ed40       ?distance@@YAMMMMM@Z       0010f140 f   GameEngine:Collision.obj
 0001:0000ed60       ?getNormalEdge@Collision@@QAE?AUVector3@@AAU2@000@Z 0010f160 f   GameEngine:Collision.obj
 0001:0000ee60       ?getNormalFace@Collision@@QAE?AUVector3@@AAVRigidbody@@U2@@Z 0010f260 f   GameEngine:Collision.obj
 0001:0000f120       ?isInside@Collision@@QAE_NUVector3@@VRigidbody@@@Z 0010f520 f   GameEngine:Collision.obj
 0001:0000f240       ??0Collider@@QAE@XZ        0010f640 f   GameEngine:Collider.obj
 0001:0000f2a0       ??0Obj@@QAE@PAD@Z          0010f6a0 f   GameEngine:Obj.obj
 0001:0000f310       ?Add@?$List@UFace@@@std@@QAEXUFace@@@Z 0010f710 f i GameEngine:Obj.obj
 0001:0000f3b0       ?Add@?$List@UVector3@@@std@@QAEXUVector3@@@Z 0010f7b0 f i GameEngine:Obj.obj
 0001:0000f460       ?CreateVertices@Obj@@AAEXXZ 0010f860 f   GameEngine:Obj.obj
 0001:0000f780       ?ReadFile@Obj@@AAEXPAD@Z   0010fb80 f   GameEngine:Obj.obj
 0001:0000f790       ??0A3D@@QAE@PAD@Z          0010fb90 f   GameEngine:A3D.obj
 0001:0000f930       ?memcmp@@YAHPBX0I@Z        0010fd30 f   Lib:string.obj
 0001:0000f970       ?memcpy@@YAPAXPAX0I@Z      0010fd70 f   Lib:string.obj
 0001:0000f9a0       ?memcpy_fast_128@@YAXPAX0I@Z 0010fda0 f   Lib:string.obj
 0001:0000fa20       ?memset16@@YAPAXPAXGI@Z    0010fe20 f   Lib:string.obj
 0001:0000fa40       ?memset32@@YAPAXPAXII@Z    0010fe40 f   Lib:string.obj
 0001:0000fa60       ?memset_fast_128@@YAPAXPAXII@Z 0010fe60 f   Lib:string.obj
 0001:0000fae0       ?strcat@@YAPADPADPBD@Z     0010fee0 f   Lib:string.obj
 0001:0000fb10       ?strcmp@@YAIPBD0@Z         0010ff10 f   Lib:string.obj
 0001:0000fb60       ?strcpy@@YAPADPADPBD@Z     0010ff60 f   Lib:string.obj
 0001:0000fb80       ?strlen@@YAIPBD@Z          0010ff80 f   Lib:string.obj
 0001:0000fba0       _memset                    0010ffa0 f   Lib:string.obj
 0001:0000fbc0       ?acos@@YAMM@Z              0010ffc0 f   Lib:math.obj
 0001:0000fc20       ?asin@@YAMM@Z              00110020 f   Lib:math.obj
 0001:0000fc80       ?atan2@@YAMMM@Z            00110080 f   Lib:math.obj
 0001:0000fd80       ?atan@@YAMM@Z              00110180 f   Lib:math.obj
 0001:0000fdb0       ?ceil@@YAHM@Z              001101b0 f   Lib:math.obj
 0001:0000fdd0       ?cos@@YAMM@Z               001101d0 f   Lib:math.obj
 0001:0000fdf0       ?fact@@YAMM@Z              001101f0 f   Lib:math.obj
 0001:0000fe30       ?floor@@YAHM@Z             00110230 f   Lib:math.obj
 0001:0000fe50       ?log10@@YAMM@Z             00110250 f   Lib:math.obj
 0001:0000fe70       ?log2@@YAMM@Z              00110270 f   Lib:math.obj
 0001:0000fe90       ?log@@YAMM@Z               00110290 f   Lib:math.obj
 0001:0000feb0       ?logn@@YAMMM@Z             001102b0 f   Lib:math.obj
 0001:0000fee0       ?pow@@YAMMH@Z              001102e0 f   Lib:math.obj
 0001:0000ffc0       ?rand@@YAIXZ               001103c0 f   Lib:math.obj
 0001:0000ffe0       ?round@@YAHM@Z             001103e0 f   Lib:math.obj
 0001:00010000       ?sin@@YAMM@Z               00110400 f   Lib:math.obj
 0001:00010020       ?sqrt@@YAMM@Z              00110420 f   Lib:math.obj
 0001:00010040       ?srand@@YAXI@Z             00110440 f   Lib:math.obj
 0001:00010050       ?tan@@YAMM@Z               00110450 f   Lib:math.obj
 0001:00010080       ?atof@@YAMPBD@Z            00110480 f   Lib:stdio.obj
 0001:00010120       ?atoi@@YAHPBD@Z            00110520 f   Lib:stdio.obj
 0001:00010140       ?ftoa@@YAPADMIPAD@Z        00110540 f   Lib:stdio.obj
 0001:00010260       ?itoa@@YAPADHIPAD_N@Z      00110660 f   Lib:stdio.obj
 0001:000102f0       ?strtol@@YAJPBDPAPADH@Z    001106f0 f   Lib:stdio.obj
 0001:00010440       ?vprintf@@YAPADPADPBDZZ    00110840 f   Lib:stdio.obj
 0001:00010460       ?vsprintf@@YAPADPADPBDPAE@Z 00110860 f   Lib:stdio.obj
 0001:000107d0       ??2@YAPAXI@Z               00110bd0 f   KERNEL:kernel.obj
 0001:00010820       ??3@YAXPAX@Z               00110c20 f   KERNEL:kernel.obj
 0001:00010840       ??_U@YAPAXI@Z              00110c40 f   KERNEL:kernel.obj
 0001:000108d0       ??_V@YAXPAX@Z              00110cd0 f   KERNEL:kernel.obj
 0001:000108e0       ?Init@Kernel@@SAXPAUMULTIBOOT_INFO@@@Z 00110ce0 f   KERNEL:kernel.obj
 0001:00010970       ?Clear@Debug@@SAXI@Z       00110d70 f   KERNEL:debug.obj
 0001:00010990       ?Dump@Debug@@SAXPAXH_N@Z   00110d90 f   KERNEL:debug.obj
 0001:00010ad0       ?Print@Debug@@SAXPADZZ     00110ed0 f   KERNEL:debug.obj
 0001:00010c60       ?Putc@Debug@@SAXD_N@Z      00111060 f   KERNEL:debug.obj
 0001:00010db0       ?ATA_Interrupt@ATA@@CAXXZ  001111b0 f   KERNEL:ata.obj
 0001:00010dc0       ?Init@ATA@@SAIXZ           001111c0 f   KERNEL:ata.obj
 0001:00010df0       ?Read@ATA@@SAIHHHAAPADH@Z  001111f0 f   KERNEL:ata.obj
 0001:00011000       ?ReadSector@ATA@@CAIHHHPAD@Z 00111400 f   KERNEL:ata.obj
 0001:000111b0       ?Clear@VBE@@SAXI@Z         001115b0 f   KERNEL:vbe.obj
 0001:000111d0       ?Draw@VBE@@SAXXZ           001115d0 f   KERNEL:vbe.obj
 0001:000111f0       ?DrawLine@VBE@@SAXIIIII@Z  001115f0 f   KERNEL:vbe.obj
 0001:00011320       ?DrawText@VBE@@SAXIIPADI@Z 00111720 f   KERNEL:vbe.obj
 0001:000113e0       ?DrawText@VBE@@SAXIIPADII@Z 001117e0 f   KERNEL:vbe.obj
 0001:000114c0       ?Init@VBE@@SAIPAUVBE_MODE_INFO@@@Z 001118c0 f   KERNEL:vbe.obj
 0001:00011550       ?SetPixel@VBE@@SAXIII@Z    00111950 f   KERNEL:vbe.obj
 0001:00011580       ?DecodeAscii@Keyboard@@CAXAAUKEY_PACKET@@@Z 00111980 f   KERNEL:keyboard.obj
 0001:00011810       ?DiscardLastKey@Keyboard@@SAXXZ 00111c10 f   KERNEL:keyboard.obj
 0001:00011820       ?GetKeyDown@Keyboard@@SA_NW4KEYCODE@@@Z 00111c20 f   KERNEL:keyboard.obj
 0001:00011830       ?GetLastKey@Keyboard@@SA?AUKEY_PACKET@@XZ 00111c30 f   KERNEL:keyboard.obj
 0001:00011850       ?Init@Keyboard@@SAIXZ      00111c50 f   KERNEL:keyboard.obj
 0001:00011870       ?Keyboard_ISR@Keyboard@@CAXXZ 00111c70 f   KERNEL:keyboard.obj
 0001:00011a60       ?Init@PIT@@SAIXZ           00111e60 f   KERNEL:pit.obj
 0001:00011aa0       ?PIT_ISR@PIT@@CAXXZ        00111ea0 f   KERNEL:pit.obj
 0001:00011ab0       ?ReadData@PIT@@CAEE@Z      00111eb0 f   KERNEL:pit.obj
 0001:00011ae0       ?SendData@PIT@@CAXGE@Z     00111ee0 f   KERNEL:pit.obj
 0001:00011b20       ?Sleep@PIT@@SAXI@Z         00111f20 f   KERNEL:pit.obj
 0001:00011b40       ?Start@PIT@@CAIXZ          00111f40 f   KERNEL:pit.obj
 0001:00011b80       ?Init@Mouse@@SAIIIM@Z      00111f80 f   KERNEL:mouse.obj
 0001:00011e70       ?MouseRead@Mouse@@CAEXZ    00112270 f   KERNEL:mouse.obj
 0001:00011ea0       ?MouseWait@Mouse@@CAXE@Z   001122a0 f   KERNEL:mouse.obj
 0001:00011ee0       ?MouseWrite@Mouse@@CAXE@Z  001122e0 f   KERNEL:mouse.obj
 0001:00011f40       ?Mouse_ISR@Mouse@@CAXXZ    00112340 f   KERNEL:mouse.obj
 0001:00012080       ?Checksum@KNet@@SAGPAXH@Z  00112480 f   KERNEL:net.obj
 0001:00012100       ?ChecksumDouble@KNet@@SAGPAXH0H@Z 00112500 f   KERNEL:net.obj
 0001:000121e0       ?Init@KNet@@SAIXZ          001125e0 f   KERNEL:net.obj
 0001:00012240       ?PrintIP@KNet@@SAXPADUIPv4Address@@@Z 00112640 f   KERNEL:net.obj
 0001:00012280       ?PrintMac@KNet@@SAXPADUMacAddress@@@Z 00112680 f   KERNEL:net.obj
 0001:000122d0       ?htonl@@YAII@Z             001126d0 f   KERNEL:net.obj
 0001:000122e0       ?htons@@YAGG@Z             001126e0 f   KERNEL:net.obj
 0001:00012300       ?ntohl@@YAII@Z             00112700 f   KERNEL:net.obj
 0001:00012310       ?ntohs@@YAGG@Z             00112710 f   KERNEL:net.obj
 0001:00012330       ?KernelPanic@Panic@@SAXPAD0@Z 00112730 f   KERNEL:panic.obj
 0001:00012370       ?AllocBlocks@Memory@@SAPAXI@Z 00112770 f   KERNEL:memory.obj
 0001:000124a0       ?DeInitRegion@Memory@@SAXPAXI@Z 001128a0 f   KERNEL:memory.obj
 0001:000124f0       ?FirstFree@Memory@@CAIXZ   001128f0 f   KERNEL:memory.obj
 0001:00012530       ?FirstFreeNum@Memory@@CAII@Z 00112930 f   KERNEL:memory.obj
 0001:00012620       ?FreeBlocks@Memory@@SAXPAXI@Z 00112a20 f   KERNEL:memory.obj
 0001:00012680       ?Init@Memory@@SAIIPAI@Z    00112a80 f   KERNEL:memory.obj
 0001:00012700       ?InitRegion@Memory@@SAXPAXI@Z 00112b00 f   KERNEL:memory.obj
 0001:00012750       ?EnableFPU@CPU@@CAIXZ      00112b50 f   KERNEL:cpu.obj
 0001:00012770       ?EnableSSE@CPU@@CAIXZ      00112b70 f   KERNEL:cpu.obj
 0001:000127a0       ?Init@CPU@@SAIXZ           00112ba0 f   KERNEL:cpu.obj
 0001:000127d0       ?Init@HAL@@SAIXZ           00112bd0 f   KERNEL:hal.obj
 0001:00012800       ?inb@@YAEG@Z               00112c00 f   KERNEL:hal.obj
 0001:00012820       ?inl@@YAIG@Z               00112c20 f   KERNEL:hal.obj
 0001:00012840       ?inw@@YAGG@Z               00112c40 f   KERNEL:hal.obj
 0001:00012860       ?outb@@YAXGE@Z             00112c60 f   KERNEL:hal.obj
 0001:00012870       ?outl@@YAXGI@Z             00112c70 f   KERNEL:hal.obj
 0001:00012880       ?outw@@YAXGG@Z             00112c80 f   KERNEL:hal.obj
 0001:00012890       ?DefaultISR@Exceptions@@SAXXZ 00112c90 f   KERNEL:exceptions.obj
 0001:000128b0       ?ISR0@Exceptions@@CAXXZ    00112cb0 f   KERNEL:exceptions.obj
 0001:000128d0       ?ISR10@Exceptions@@CAXXZ   00112cd0 f   KERNEL:exceptions.obj
 0001:000128f0       ?ISR11@Exceptions@@CAXXZ   00112cf0 f   KERNEL:exceptions.obj
 0001:00012910       ?ISR12@Exceptions@@CAXXZ   00112d10 f   KERNEL:exceptions.obj
 0001:00012930       ?ISR13@Exceptions@@CAXXZ   00112d30 f   KERNEL:exceptions.obj
 0001:00012950       ?ISR14@Exceptions@@CAXXZ   00112d50 f   KERNEL:exceptions.obj
 0001:00012970       ?ISR15@Exceptions@@CAXXZ   00112d70 f   KERNEL:exceptions.obj
 0001:00012990       ?ISR16@Exceptions@@CAXXZ   00112d90 f   KERNEL:exceptions.obj
 0001:000129b0       ?ISR17@Exceptions@@CAXXZ   00112db0 f   KERNEL:exceptions.obj
 0001:000129d0       ?ISR18@Exceptions@@CAXXZ   00112dd0 f   KERNEL:exceptions.obj
 0001:000129f0       ?ISR19@Exceptions@@CAXXZ   00112df0 f   KERNEL:exceptions.obj
 0001:00012a10       ?ISR1@Exceptions@@CAXXZ    00112e10 f   KERNEL:exceptions.obj
 0001:00012a30       ?ISR2@Exceptions@@CAXXZ    00112e30 f   KERNEL:exceptions.obj
 0001:00012a50       ?ISR3@Exceptions@@CAXXZ    00112e50 f   KERNEL:exceptions.obj
 0001:00012a70       ?ISR4@Exceptions@@CAXXZ    00112e70 f   KERNEL:exceptions.obj
 0001:00012a90       ?ISR5@Exceptions@@CAXXZ    00112e90 f   KERNEL:exceptions.obj
 0001:00012ab0       ?ISR6@Exceptions@@CAXIII@Z 00112eb0 f   KERNEL:exceptions.obj
 0001:00012b30       ?ISR7@Exceptions@@CAXXZ    00112f30 f   KERNEL:exceptions.obj
 0001:00012b50       ?ISR8@Exceptions@@CAXXZ    00112f50 f   KERNEL:exceptions.obj
 0001:00012b70       ?ISR9@Exceptions@@CAXXZ    00112f70 f   KERNEL:exceptions.obj
 0001:00012b90       ?Init@Exceptions@@SAIXZ    00112f90 f   KERNEL:exceptions.obj
 0001:00012c90       ?Create@PCI@@CAPAUPCI_DEVICE@@EEE@Z 00113090 f   KERNEL:pci.obj
 0001:00012d50       ?GetDevice@PCI@@SAPAUPCI_DEVICE@@HHH@Z 00113150 f   KERNEL:pci.obj
 0001:00012f00       ?Init@PCI@@SAIXZ           00113300 f   KERNEL:pci.obj
 0001:00012f10       ?Read@PCI@@CAIEEEEE@Z      00113310 f   KERNEL:pci.obj
 0001:00012f80       ?printdev@@YAXPAUPCI_DEVICE@@@Z 00113380 f   KERNEL:pci.obj
 0001:00012fc0       ?EmptyISR@IDT@@SAXXZ       001133c0 f   KERNEL:idt.obj
 0001:00012fd0       ?GetIR@IDT@@SAPAUIDT_DESCRIPTOR@@I@Z 001133d0 f   KERNEL:idt.obj
 0001:00012fe0       ?Init@IDT@@SAIXZ           001133e0 f   KERNEL:idt.obj
 0001:00013050       ?SetISR@IDT@@SAIIP6AXXZ@Z  00113450 f   KERNEL:idt.obj
 0001:00013090       ?Init@PIC@@SAIXZ           00113490 f   KERNEL:pic.obj
 0001:000130f0       ?InterruptDone@PIC@@SAXG@Z 001134f0 f   KERNEL:pic.obj
 0001:00013120       ?ReadData@PIC@@CAEE@Z      00113520 f   KERNEL:pic.obj
 0001:00013150       ?SendCommand@PIC@@CAXEE@Z  00113550 f   KERNEL:pic.obj
 0001:00013180       ?SendData@PIC@@CAXGE@Z     00113580 f   KERNEL:pic.obj
 0001:000131a9       ??1type_info@@UAE@XZ       001135a9 f   LIBCMT:std_type_info_static.obj
 0001:000131b0       ??_Etype_info@@UAEPAXI@Z   001135b0 f i LIBCMT:std_type_info_static.obj
 0001:000131b0       ??_Gtype_info@@UAEPAXI@Z   001135b0 f i LIBCMT:std_type_info_static.obj
 0001:000131d3       ??3@YAXPAXI@Z              001135d3 f   LIBCMT:delete_scalar_size.obj
 0002:00000000       ??_C@_06JJGECBPI@?$CFs?5?$CFi?6?$AA@ 00113600     iso.obj
 0002:00000008       ??_C@_03OFAPEBGM@?$CFs?6?$AA@ 00113608     iso.obj
 0002:0000000c       ??_C@_03PELOGHMK@?$CFi?6?$AA@ 0011360c     Mandelbrot.obj
 0002:00000010       ??_C@_06CMGOICJA@Start?6?$AA@ 00113610     Mandelbrot.obj
 0002:00000018       ??_C@_0BD@OAOOOKEK@Ticks?3?5?$CFi?7FPS?3?5?$CFi?6?$AA@ 00113618     Mandelbrot.obj
 0002:0000002c       ??_C@_09JHEKFLJE@Zoom?3?5?$CFf?6?$AA@ 0011362c     Mandelbrot.obj
 0002:00000038       __real@1adaca00            00113638     Mandelbrot.obj
 0002:00000040       __real@3fe0000000000000    00113640     Mandelbrot.obj
 0002:00000048       __real@3fe93b645a1cac08    00113648     Mandelbrot.obj
 0002:00000050       __real@3ff0000000000000    00113650     Mandelbrot.obj
 0002:00000058       __real@4010000000000000    00113658     Mandelbrot.obj
 0002:00000060       __real@4088000000000000    00113660     Mandelbrot.obj
 0002:00000068       __real@40f0000000000000    00113668     Mandelbrot.obj
 0002:00000070       __real@437f0000            00113670     Mandelbrot.obj
 0002:00000074       __real@447a0000            00113674     Mandelbrot.obj
 0002:00000078       ??_C@_0BJ@FHJFEPME@arp?3?5sending?5request?5to?5?$AA@ 00113678     arp.obj
 0002:00000094       ??_C@_0BH@NFEPIOCG@arp?3?5sending?5reply?5to?5?$AA@ 00113694     arp.obj
 0002:000000ac       ??_C@_0BB@NPEPEJMJ@ARP?5added?5entry?5?$AA@ 001136ac     arp.obj
 0002:000000c0       ??_C@_0O@MBFFJLEF@DHCP?5RECEIVE?6?$AA@ 001136c0     dhcp.obj
 0002:000000d0       ??_C@_0O@IJAKJLNJ@Received?5DNS?6?$AA@ 001136d0     dns.obj
 0002:000000e0       ??_C@_0BF@DPFFLPFA@DNS?5added?5entry?3?5?$CFs?5?$AA@ 001136e0     dns.obj
 0002:000000f5       ??_C@_00CNPNBAHC@?$AA@     001136f5     dns.obj
 0002:000000f8       ??_C@_0M@KNKKGHNO@PARSED?5IP?3?5?$AA@ 001136f8     http.obj
 0002:00000104       ??_C@_0BO@OHMKJDEI@Flags?3?5?$CFux?7ACK?3?5?$CFui?7SEQ?3?5?$CFui?6?$AA@ 00113704     tcpsession.obj
 0002:00000124       ??_C@_0L@EIILFCEB@Connected?6?$AA@ 00113724     tcpsession.obj
 0002:00000130       ??_C@_07IPMAGINO@Closed?6?$AA@ 00113730     tcpsession.obj
 0002:00000138       ??_C@_0BA@FHBAHEGN@Timeout?5closed?6?$AA@ 00113738     tcpsession.obj
 0002:00000148       ??_C@_04CDEGOFNM@Cam1?$AA@ 00113748     3DGame:3DGame.obj
 0002:00000150       ??_C@_05FOLLILPC@Thing?$AA@ 00113750     3DGame:3DGame.obj
 0002:00000158       ??_C@_05PGDJFNFN@Floor?$AA@ 00113758     3DGame:3DGame.obj
 0002:00000160       __real@3f800000            00113760     3DGame:3DGame.obj
 0002:00000164       __real@40a00000            00113764     3DGame:3DGame.obj
 0002:00000168       __real@41200000            00113768     3DGame:3DGame.obj
 0002:0000016c       __real@c1700000            0011376c     3DGame:3DGame.obj
 0002:00000174       ??_7MyBox@@6B@             00113774     3DGame:MyBox.obj
 0002:0000017c       ??_C@_08GGPPOII@cube?4a3d?$AA@ 0011377c     3DGame:MyBox.obj
 0002:00000188       ??_C@_07CKAHAGKJ@img?4bmp?$AA@ 00113788     3DGame:MyBox.obj
 0002:00000190       ??_C@_0O@NJFLLBAD@bmp?5not?5found?$AA@ 00113790     3DGame:MyBox.obj
 0002:000001a0       ??_C@_04GONFKEIN@Mesh?$AA@ 001137a0     3DGame:MyBox.obj
 0002:000001a8       ??_C@_09DHKFHJOA@Rigidbody?$AA@ 001137a8     3DGame:MyBox.obj
 0002:000001b8       ??_7Thing@@6B@             001137b8     3DGame:Thing.obj
 0002:000001c0       ??_C@_09PCLIKNNA@earth?4bmp?$AA@ 001137c0     3DGame:Thing.obj
 0002:000001cc       __real@41a00000            001137cc     3DGame:Thing.obj
 0002:000001d0       __xmm@80000000800000008000000080000000 001137d0     3DGame:Thing.obj
 0002:000001e0       __real@0000000000000000    001137e0     GL:Matrix4.obj
 0002:000001e8       __real@40000000            001137e8     GL:Matrix4.obj
 0002:000001f0       __real@400921fb54442eea    001137f0     GL:Matrix4.obj
 0002:000001f8       __real@4066800000000000    001137f8     GL:Matrix4.obj
 0002:00000200       __real@3fb1eb851eb851ec    00113800     GL:Color.obj
 0002:00000208       __real@3fcae147ae147ae1    00113808     GL:Color.obj
 0002:00000210       __real@3fe70a3d70a3d70a    00113810     GL:Color.obj
 0002:00000220       __xmm@41f00000000000000000000000000000 00113820     GL:Color.obj
 0002:00000230       ??_C@_05JODGIKH@Light?$AA@ 00113830     GameEngine:Engine.obj
 0002:00000238       ??_C@_06LOJNHMMK@Thing2?$AA@ 00113838     GameEngine:Engine.obj
 0002:00000240       ??_C@_0BJ@JEFINMGB@FPS?3?5?$CFi?7DT?3?$CFi?7AvgDT?3?5?$CFi?6?$AA@ 00113840     GameEngine:Engine.obj
 0002:0000025c       ??_C@_0L@KCHEIND@Ticks?3?5?$CFi?6?$AA@ 0011385c     GameEngine:Engine.obj
 0002:00000268       ??_C@_08DAHIJCLH@Free?5?$CFi?6?$AA@ 00113868     GameEngine:Engine.obj
 0002:00000274       ??_C@_08FHFNDDND@Cam?3?5?$CFs?6?$AA@ 00113874     GameEngine:Engine.obj
 0002:00000280       ??_C@_07JOHLBHPG@P1?3?5?$CFs?6?$AA@ 00113880     GameEngine:Engine.obj
 0002:00000288       ??_C@_0BC@KLOOLLKI@V1?3?5?$FL?$CFf?0?5?$CFf?0?5?$CFf?$FN?6?$AA@ 00113888     GameEngine:Engine.obj
 0002:0000029c       ??_C@_0M@CBHEFHKI@Energy?3?5?$CFf?6?$AA@ 0011389c     GameEngine:Engine.obj
 0002:000002a8       ??_C@_0BA@DLCGCPOP@?$CFi?5?$CFi?7?$CFf?5?$CFf?5?$CFf?6?$AA@ 001138a8     GameEngine:Engine.obj
 0002:000002b8       ??_C@_08GDLGNBJK@?$CFf?7?$CFf?7?$CFf?$AA@ 001138b8     GameEngine:Engine.obj
 0002:000002c4       ??_C@_0BB@PIJAIOHM@List?3?3operator?$FL?$FN?$AA@ 001138c4     GameEngine:Engine.obj
 0002:000002d8       ??_C@_0BN@NJEFJLOF@Index?5out?5of?5range?5exception?$AA@ 001138d8     GameEngine:Engine.obj
 0002:000002f8       __real@3ff921fb54442eea    001138f8     GameEngine:Engine.obj
 0002:00000300       __real@401921fb54442eea    00113900     GameEngine:Engine.obj
 0002:00000308       __real@402399999999999a    00113908     GameEngine:Engine.obj
 0002:00000310       __real@40800000            00113910     GameEngine:Engine.obj
 0002:00000314       __real@40c00000            00113914     GameEngine:Engine.obj
 0002:00000318       __real@43c80000            00113918     GameEngine:Engine.obj
 0002:0000031c       __real@44fa0000            0011391c     GameEngine:Engine.obj
 0002:00000320       __real@bff921fb54442eea    00113920     GameEngine:Engine.obj
 0002:00000328       __real@c0000000            00113928     GameEngine:Engine.obj
 0002:00000330       __xmm@7fffffffffffffff7fffffffffffffff 00113930     GameEngine:Engine.obj
 0002:00000340       __xmm@80000000000000008000000000000000 00113940     GameEngine:Engine.obj
 0002:00000354       ??_7GameObject@@6B@        00113954     GameEngine:GameObject.obj
 0002:0000035c       ??_C@_0L@EJMOOPIK@GameObject?$AA@ 0011395c     GameEngine:GameObject.obj
 0002:0000036c       ??_7Camera@@6B@            0011396c     GameEngine:Camera.obj
 0002:00000378       ??_7Component@@6B@         00113978     GameEngine:Component.obj
 0002:00000384       ??_7MeshComponent@@6B@     00113984     GameEngine:MeshComponent.obj
 0002:00000390       ??_7Rigidbody@@6B@         00113990     GameEngine:Rigidbody.obj
 0002:0000039c       ??_7BoxCollider@@6B@       0011399c     GameEngine:BoxCollider.obj
 0002:000003ac       ??_C@_05MBDEGLCK@ERROR?$AA@ 001139ac     GameEngine:ModelLoader.obj
 0002:000003c0       __xmm@0000000000000000000000003f800000 001139c0     GameEngine:Matrix3.obj
 0002:000003d0       __xmm@3f800000000000000000000000000000 001139d0     GameEngine:Matrix3.obj
 0002:000003e0       ??_C@_0CL@CEJFKDDD@?$FL?$CFf?0?5?$CFf?0?5?$CFf?$FN?5?$FL?$CFf?0?5?$CFf?0?5?$CFf?0?5?$CFf?$FN?5?$FL?$CF@ 001139e0     GameEngine:Transform.obj
 0002:0000040c       __real@3f000000            00113a0c     GameEngine:Transform.obj
 0002:00000410       ??_C@_03PPOCCAPH@?$CFf?6?$AA@ 00113a10     GameEngine:Collision.obj
 0002:00000414       __real@00000000            00113a14     GameEngine:Collision.obj
 0002:00000418       __real@3727c5ac            00113a18     GameEngine:Collision.obj
 0002:0000041c       __real@3d4ccccd            00113a1c     GameEngine:Collision.obj
 0002:00000420       __real@3dcccccd            00113a20     GameEngine:Collision.obj
 0002:00000424       __real@7f800000            00113a24     GameEngine:Collision.obj
 0002:00000428       __real@bf800000            00113a28     GameEngine:Collision.obj
 0002:00000430       __xmm@7fffffff7fffffff7fffffff7fffffff 00113a30     GameEngine:Collision.obj
 0002:00000444       ??_7Collider@@6B@          00113a44     GameEngine:Collider.obj
 0002:00000454       __real@3e8f5c29            00113a54     Lib:math.obj
 0002:00000458       __real@40490fdb            00113a58     Lib:math.obj
 0002:0000045c       __real@bfc90fdb            00113a5c     Lib:math.obj
 0002:00000460       ??_C@_03LHCJEHON@nan?$AA@  00113a60     Lib:stdio.obj
 0002:00000464       ??_C@_03OJHLLCGB@inf?$AA@  00113a64     Lib:stdio.obj
 0002:00000468       ??_C@_01GBGANLPD@0?$AA@    00113a68     Lib:stdio.obj
 0002:00000470       __real@3f1a36e2eb1c432d    00113a70     Lib:stdio.obj
 0002:00000480       __xmm@46454443424139383736353433323130 00113a80     Lib:stdio.obj
 0002:00000490       __real@39800000            00113a90     KERNEL:kernel.obj
 0002:00000494       ??_C@_04PFOHOKJK@?5?5?5?5?$AA@ 00113a94     KERNEL:debug.obj
 0002:0000049c       ??_C@_01CLKCMJKC@?5?$AA@   00113a9c     KERNEL:debug.obj
 0002:000004a0       ??_C@_03IKGEINEE@?$CFs?5?$AA@ 00113aa0     KERNEL:debug.obj
 0002:00000618       ??_C@_0P@JJOCPBNH@?$CFs?$CFi?4?$CFi?4?$CFi?4?$CFi?6?$AA@ 00113c18     KERNEL:net.obj
 0002:00000628       ??_C@_0BF@MCJEFIGG@?$CFs?$CFx?3?$CFx?3?$CFx?3?$CFx?3?$CFx?3?$CFx?6?$AA@ 00113c28     KERNEL:net.obj
 0002:00000640       ??_C@_0BK@KHJFGGEJ@Default?5interrupt?5handler?$AA@ 00113c40     KERNEL:exceptions.obj
 0002:0000065c       ??_C@_0BB@CAGHCAFL@Division?5by?5zero?$AA@ 00113c5c     KERNEL:exceptions.obj
 0002:00000670       ??_C@_05GCIPIGEI@Debug?$AA@ 00113c70     KERNEL:exceptions.obj
 0002:00000678       ??_C@_0BH@DLMGGJOP@Non?9Maskable?5interrupt?$AA@ 00113c78     KERNEL:exceptions.obj
 0002:00000690       ??_C@_0L@DEJAMIEF@Breakpoint?$AA@ 00113c90     KERNEL:exceptions.obj
 0002:0000069c       ??_C@_08KJPBNJGC@Overflow?$AA@ 00113c9c     KERNEL:exceptions.obj
 0002:000006a8       ??_C@_0BF@KABNNNC@Bound?5range?5exceeded?$AA@ 00113ca8     KERNEL:exceptions.obj
 0002:000006c0       ??_C@_0BJ@JILCCCBH@0x?$CFux?70x?$CFux?70x?$CFux?70x?$CFux?6?$AA@ 00113cc0     KERNEL:exceptions.obj
 0002:000006dc       ??_C@_06NIEMCLMH@0x?$CFux?6?$AA@ 00113cdc     KERNEL:exceptions.obj
 0002:000006e4       ??_C@_0P@GJJPHHDN@Invalid?5opcode?$AA@ 00113ce4     KERNEL:exceptions.obj
 0002:000006f4       ??_C@_0BF@COPPNEEP@Device?5not?5available?$AA@ 00113cf4     KERNEL:exceptions.obj
 0002:0000070c       ??_C@_0N@EMHPBCJE@Double?5fault?$AA@ 00113d0c     KERNEL:exceptions.obj
 0002:0000071c       ??_C@_0BM@FLNHCLJG@Coprocessor?5segment?5overrun?$AA@ 00113d1c     KERNEL:exceptions.obj
 0002:00000738       ??_C@_0M@OLMALBPG@Invalid?5TSS?$AA@ 00113d38     KERNEL:exceptions.obj
 0002:00000744       ??_C@_0BE@FPPPAKKN@Segment?5not?5present?$AA@ 00113d44     KERNEL:exceptions.obj
 0002:00000758       ??_C@_0BE@OLMOIPB@Stack?9segment?5fault?$AA@ 00113d58     KERNEL:exceptions.obj
 0002:0000076c       ??_C@_0BJ@LDJBBLLL@General?5protection?5fault?$AA@ 00113d6c     KERNEL:exceptions.obj
 0002:00000788       ??_C@_0L@JBNHOLPF@Page?5fault?$AA@ 00113d88     KERNEL:exceptions.obj
 0002:00000794       ??_C@_0O@EBPJONIA@15?5?$CIReserved?$CJ?$AA@ 00113d94     KERNEL:exceptions.obj
 0002:000007a4       ??_C@_0BN@OAPCMCOK@x87?5Floating?9point?5exception?$AA@ 00113da4     KERNEL:exceptions.obj
 0002:000007c4       ??_C@_0BA@DMDLEFCI@Alignment?5check?$AA@ 00113dc4     KERNEL:exceptions.obj
 0002:000007d4       ??_C@_0O@LHBOKIFP@Machine?5check?$AA@ 00113dd4     KERNEL:exceptions.obj
 0002:000007e4       ??_C@_0BO@PAHIJHOM@SIMD?5floating?9point?5exception?$AA@ 00113de4     KERNEL:exceptions.obj
 0002:00000808       ??_C@_0EO@NIHBEAOP@Bus?3?5?$CFx?5Device?3?5?$CFx?5Function?3?5?$CFx?5@ 00113e08     KERNEL:pci.obj
 0002:0000085c       ??_7type_info@@6B@         00113e5c     LIBCMT:std_type_info_static.obj
 0002:000008b4       ??_R4MyBox@@6B@            00113eb4     3DGame:MyBox.obj
 0002:000008c8       ??_R3MyBox@@8              00113ec8     3DGame:MyBox.obj
 0002:000008d8       ??_R2MyBox@@8              00113ed8     3DGame:MyBox.obj
 0002:000008e4       ??_R1A@?0A@EA@MyBox@@8     00113ee4     3DGame:MyBox.obj
 0002:00000900       ??_R1A@?0A@EA@GameObject@@8 00113f00     3DGame:MyBox.obj
 0002:0000091c       ??_R3GameObject@@8         00113f1c     3DGame:MyBox.obj
 0002:0000092c       ??_R2GameObject@@8         00113f2c     3DGame:MyBox.obj
 0002:00000934       ??_R4Thing@@6B@            00113f34     3DGame:Thing.obj
 0002:00000948       ??_R3Thing@@8              00113f48     3DGame:Thing.obj
 0002:00000958       ??_R2Thing@@8              00113f58     3DGame:Thing.obj
 0002:00000964       ??_R1A@?0A@EA@Thing@@8     00113f64     3DGame:Thing.obj
 0002:00000980       ??_R4GameObject@@6B@       00113f80     GameEngine:GameObject.obj
 0002:00000994       ??_R4Camera@@6B@           00113f94     GameEngine:Camera.obj
 0002:000009a8       ??_R3Camera@@8             00113fa8     GameEngine:Camera.obj
 0002:000009b8       ??_R2Camera@@8             00113fb8     GameEngine:Camera.obj
 0002:000009c4       ??_R1A@?0A@EA@Camera@@8    00113fc4     GameEngine:Camera.obj
 0002:000009e0       ??_R4Component@@6B@        00113fe0     GameEngine:Component.obj
 0002:000009f4       ??_R3Component@@8          00113ff4     GameEngine:Component.obj
 0002:00000a04       ??_R2Component@@8          00114004     GameEngine:Component.obj
 0002:00000a0c       ??_R1A@?0A@EA@Component@@8 0011400c     GameEngine:Component.obj
 0002:00000a28       ??_R4MeshComponent@@6B@    00114028     GameEngine:MeshComponent.obj
 0002:00000a3c       ??_R3MeshComponent@@8      0011403c     GameEngine:MeshComponent.obj
 0002:00000a4c       ??_R2MeshComponent@@8      0011404c     GameEngine:MeshComponent.obj
 0002:00000a5c       ??_R1A@?0A@EA@MeshComponent@@8 0011405c     GameEngine:MeshComponent.obj
 0002:00000a78       ??_R1M@?0A@EA@IMesh@@8     00114078     GameEngine:MeshComponent.obj
 0002:00000a94       ??_R3IMesh@@8              00114094     GameEngine:MeshComponent.obj
 0002:00000aa4       ??_R2IMesh@@8              001140a4     GameEngine:MeshComponent.obj
 0002:00000aac       ??_R1A@?0A@EA@IMesh@@8     001140ac     GameEngine:MeshComponent.obj
 0002:00000ac8       ??_R4Rigidbody@@6B@        001140c8     GameEngine:Rigidbody.obj
 0002:00000adc       ??_R3Rigidbody@@8          001140dc     GameEngine:Rigidbody.obj
 0002:00000aec       ??_R2Rigidbody@@8          001140ec     GameEngine:Rigidbody.obj
 0002:00000af8       ??_R1A@?0A@EA@Rigidbody@@8 001140f8     GameEngine:Rigidbody.obj
 0002:00000b14       ??_R4BoxCollider@@6B@      00114114     GameEngine:BoxCollider.obj
 0002:00000b28       ??_R3BoxCollider@@8        00114128     GameEngine:BoxCollider.obj
 0002:00000b38       ??_R2BoxCollider@@8        00114138     GameEngine:BoxCollider.obj
 0002:00000b44       ??_R1A@?0A@EA@BoxCollider@@8 00114144     GameEngine:BoxCollider.obj
 0002:00000b60       ??_R1A@?0A@EA@Collider@@8  00114160     GameEngine:BoxCollider.obj
 0002:00000b7c       ??_R3Collider@@8           0011417c     GameEngine:BoxCollider.obj
 0002:00000b8c       ??_R2Collider@@8           0011418c     GameEngine:BoxCollider.obj
 0002:00000b94       ??_R4Collider@@6B@         00114194     GameEngine:Collider.obj
 0002:00000ba8       ??_R4type_info@@6B@        001141a8     LIBCMT:std_type_info_static.obj
 0002:00000bbc       ??_R3type_info@@8          001141bc     LIBCMT:std_type_info_static.obj
 0002:00000bcc       ??_R2type_info@@8          001141cc     LIBCMT:std_type_info_static.obj
 0002:00000bd4       ??_R1A@?0A@EA@type_info@@8 001141d4     LIBCMT:std_type_info_static.obj
 0003:00000000       ?count@@3HA                00114400     Mandelbrot.obj
 0003:00003008       ?acc@@3MA                  00117408     3DGame:Thing.obj
 0003:0000300c       ?m_width@GL@gl@@2IA        0011740c     GL:GL.obj
 0003:00003010       ?m_height@GL@gl@@2IA       00117410     GL:GL.obj
 0003:00003014       ?bound_tex@gl@@3HA         00117414     GL:GL.obj
 0003:00003018       ?p4@@3MA                   00117418     GameEngine:Engine.obj
 0003:0000301c       ?p5@@3MA                   0011741c     GameEngine:Engine.obj
 0003:00003020       ?__LINE__Var@?0???0Manifold@@QAE@XZ@4JA 00117420     GameEngine:Collision.obj
 0003:00003028       ?color@Debug@@2IA          00117428     KERNEL:debug.obj
 0003:00004030       __fltused                  00118430     LIBCMT:fltused.obj
 0003:00004034       ??_R0?AVMyBox@@@8          00118434     3DGame:MyBox.obj
 0003:00004048       ??_R0?AVGameObject@@@8     00118448     3DGame:MyBox.obj
 0003:00004064       ??_R0?AVThing@@@8          00118464     3DGame:Thing.obj
 0003:00004078       ??_R0?AVCamera@@@8         00118478     GameEngine:Camera.obj
 0003:00004090       ??_R0?AVComponent@@@8      00118490     GameEngine:Component.obj
 0003:000040a8       ??_R0?AVMeshComponent@@@8  001184a8     GameEngine:MeshComponent.obj
 0003:000040c4       ??_R0?AVIMesh@@@8          001184c4     GameEngine:MeshComponent.obj
 0003:000040d8       ??_R0?AVRigidbody@@@8      001184d8     GameEngine:Rigidbody.obj
 0003:000040f0       ??_R0?AVBoxCollider@@@8    001184f0     GameEngine:BoxCollider.obj
 0003:0000410c       ??_R0?AVCollider@@@8       0011850c     GameEngine:BoxCollider.obj
 0003:00004124       ??_R0?AVtype_info@@@8      00118524     LIBCMT:std_type_info_static.obj
 0003:00004140       ?_kernel_stack@@3PADA      00118540     boot.obj
 0003:000060e0       ?desc@@3PAUISO_PRIMARYDESC@@A 0011a4e0     iso.obj
 0003:000060e4       ?root@@3PAUISO_DIRECTORY@@A 0011a4e4     iso.obj
 0003:000060e8       ?tz@@3UComplex@@A          0011a4e8     Mandelbrot.obj
 0003:000060f0       ?arp_cache@ARP@@0PAUARP_TABLE_ENTRY@@A 0011a4f0     arp.obj
 0003:00006230       ?dns_server@DNS@@2UIPv4Address@@A 0011a630     dns.obj
 0003:00006238       ?dns_cache@DNS@@0PAUDNS_TABLE_ENTRY@@A 0011a638     dns.obj
 0003:00006438       ?sessions@TCP@@2PAPAVTcpSession@@A 0011a838     tcp.obj
 0003:000064b8       ?phys@@3PAVRigidbody@@A    0011a8b8     3DGame:Thing.obj
 0003:000064bc       ?vel@@3MA                  0011a8bc     3DGame:Thing.obj
 0003:000064c0       ?m_textures@GL@gl@@2PAPAVBMP@@A 0011a8c0     GL:GL.obj
 0003:00006540       ?tex_index@gl@@3HA         0011a940     GL:GL.obj
 0003:00006544       ?light_index@gl@@3HA       0011a944     GL:GL.obj
 0003:00006548       ?mat_mode@gl@@3W4GLMatrixMode@@A 0011a948     GL:GL.obj
 0003:0000654c       ?mat_stack_index@gl@@3HA   0011a94c     GL:GL.obj
 0003:00006550       ?vert_ptr@gl@@3PAUVertex@1@A 0011a950     GL:GL.obj
 0003:00006554       ?m_stride@GL@gl@@2IA       0011a954     GL:GL.obj
 0003:00006558       ?mat_viewmodel@gl@@3UMatrix4@1@A 0011a958     GL:GL.obj
 0003:00006598       ?mat_stack@gl@@3PAUMatrix4@1@A 0011a998     GL:GL.obj
 0003:00006d98       ?lightsources@gl@@3PAUVector4@1@A 0011b198     GL:GL.obj
 0003:00006dd8       ?mat_projection@gl@@3UMatrix4@1@A 0011b1d8     GL:GL.obj
 0003:00006e18       ?depth_buffer@Rasterizer@gl@@2PAMA 0011b218     GL:Rasterizer.obj
 0003:00006e1c       ?p1@@3HA                   0011b21c     GameEngine:Engine.obj
 0003:00006e20       ?p2@@3MA                   0011b220     GameEngine:Engine.obj
 0003:00006e24       ?p3@@3MA                   0011b224     GameEngine:Engine.obj
 0003:00006e28       ?ticks@@3HA                0011b228     GameEngine:Engine.obj
 0003:00006e2c       ?totalFrames@@3HA          0011b22c     GameEngine:Engine.obj
 0003:00006e30       ?startTicks@@3HA           0011b230     GameEngine:Engine.obj
 0003:00006e34       ?BOOL1@@3_NA               0011b234     GameEngine:Engine.obj
 0003:00006e38       ?last_mouse_pos@@3UVector3@@A 0011b238     GameEngine:Engine.obj
 0003:00006e44       ?n@@3HA                    0011b244     GameEngine:BoxCollider.obj
 0003:00006e48       ?c@@3UVector3@@A           0011b248     GameEngine:BoxCollider.obj
 0003:00006e54       ?v@@3UVector3@@A           0011b254     GameEngine:BoxCollider.obj
 0003:00006e60       ?d@@3UVector3@@A           0011b260     GameEngine:BoxCollider.obj
 0003:00006e6c       ?b@@3UVector3@@A           0011b26c     GameEngine:BoxCollider.obj
 0003:00006e78       ?cols@@3PAUManifold@@A     0011b278     GameEngine:Collision.obj
 0003:00007e18       ?mem_left@@3HA             0011c218     KERNEL:kernel.obj
 0003:00007e1c       ?mem_ptr@@3PAEA            0011c21c     KERNEL:kernel.obj
 0003:00007e20       ?x@Debug@@2HA              0011c220     KERNEL:debug.obj
 0003:00007e24       ?y@Debug@@2HA              0011c224     KERNEL:debug.obj
 0003:00007e28       ?bcolor@Debug@@2IA         0011c228     KERNEL:debug.obj
 0003:00007e30       ?mode@VBE@@2UVBE_MODE_INFO@@A 0011c230     KERNEL:vbe.obj
 0003:00007f30       ?buffer@VBE@@2PAIA         0011c330     KERNEL:vbe.obj
 0003:00007f34       ?mem_base@VBE@@0PAIA       0011c334     KERNEL:vbe.obj
 0003:00007f38       ?mem_max@VBE@@0PAIA        0011c338     KERNEL:vbe.obj
 0003:00007f3c       ?mem_size@VBE@@0IA         0011c33c     KERNEL:vbe.obj
 0003:00007f40       ?bytes_per_pixel@VBE@@0IA  0011c340     KERNEL:vbe.obj
 0003:00007f44       ?pixel_count@VBE@@0IA      0011c344     KERNEL:vbe.obj
 0003:00007f48       ?ctrl@Keyboard@@2_NA       0011c348     KERNEL:keyboard.obj
 0003:00007f49       ?shift@Keyboard@@2_NA      0011c349     KERNEL:keyboard.obj
 0003:00007f4a       ?alt@Keyboard@@2_NA        0011c34a     KERNEL:keyboard.obj
 0003:00007f4b       ?caps@Keyboard@@2_NA       0011c34b     KERNEL:keyboard.obj
 0003:00007f4c       ?num@Keyboard@@2_NA        0011c34c     KERNEL:keyboard.obj
 0003:00007f4d       ?scroll@Keyboard@@2_NA     0011c34d     KERNEL:keyboard.obj
 0003:00007f4e       ?extended@@3_NA            0011c34e     KERNEL:keyboard.obj
 0003:00007f4f       ?scancode@@3EA             0011c34f     KERNEL:keyboard.obj
 0003:00007f50       ?keystates@@3PA_NA         0011c350     KERNEL:keyboard.obj
 0003:0000804f       ?scan@@3EA                 0011c44f     KERNEL:keyboard.obj
 0003:00008050       ?last_key@@3UKEY_PACKET@@A 0011c450     KERNEL:keyboard.obj
 0003:0000805c       ?pressed@@3_NA             0011c45c     KERNEL:keyboard.obj
 0003:00008060       ?key@@3W4KEYCODE@@A        0011c460     KERNEL:keyboard.obj
 0003:00008064       ?ticks@PIT@@2IA            0011c464     KERNEL:pit.obj
 0003:00008068       ?x@Mouse@@2HA              0011c468     KERNEL:mouse.obj
 0003:0000806c       ?y@Mouse@@2HA              0011c46c     KERNEL:mouse.obj
 0003:00008070       ?sensitivity@Mouse@@2MA    0011c470     KERNEL:mouse.obj
 0003:00008074       ?mouse_L@Mouse@@2_NA       0011c474     KERNEL:mouse.obj
 0003:00008075       ?mouse_R@Mouse@@2_NA       0011c475     KERNEL:mouse.obj
 0003:00008076       ?mouse_M@Mouse@@2_NA       0011c476     KERNEL:mouse.obj
 0003:00008077       ?mouse_cycle@Mouse@@0EA    0011c477     KERNEL:mouse.obj
 0003:00008078       ?scroll_x@Mouse@@2HA       0011c478     KERNEL:mouse.obj
 0003:0000807c       ?scroll_y@Mouse@@2HA       0011c47c     KERNEL:mouse.obj
 0003:00008080       ?w@Mouse@@0IA              0011c480     KERNEL:mouse.obj
 0003:00008084       ?h@Mouse@@0IA              0011c484     KERNEL:mouse.obj
 0003:00008088       ?mouse_byte@Mouse@@0PACA   0011c488     KERNEL:mouse.obj
 0003:0000808c       ?initialized@Mouse@@0_NA   0011c48c     KERNEL:mouse.obj
 0003:00008090       ?intf@KNet@@2PAVNetInterface@@A 0011c490     KERNEL:net.obj
 0003:00008094       ?GatewayIPv4@KNet@@2UIPv4Address@@A 0011c494     KERNEL:net.obj
 0003:00008098       ?GatewayMAC@KNet@@2UMacAddress@@A 0011c498     KERNEL:net.obj
 0003:000080a0       ?BroadcastMAC@KNet@@2UMacAddress@@A 0011c4a0     KERNEL:net.obj
 0003:000080a8       ?BroadcastIPv4@KNet@@2UIPv4Address@@A 0011c4a8     KERNEL:net.obj
 0003:000080ac       ?NullMAC@KNet@@2UMacAddress@@A 0011c4ac     KERNEL:net.obj
 0003:000080b4       ?NullIPv4@KNet@@2UIPv4Address@@A 0011c4b4     KERNEL:net.obj
 0003:000080b8       ?num_blocks@Memory@@2IA    0011c4b8     KERNEL:memory.obj
 0003:000080bc       ?num_free@Memory@@2IA      0011c4bc     KERNEL:memory.obj
 0003:000080c0       ?mem_size@Memory@@2IA      0011c4c0     KERNEL:memory.obj
 0003:000080c4       ?mem_map@Memory@@0PAIA     0011c4c4     KERNEL:memory.obj
 0003:000080c8       ?idt@IDT@@0PAUIDT_DESCRIPTOR@@A 0011c4c8     KERNEL:idt.obj
 0003:000088c8       ?idt_reg@IDT@@0UIDT_REG@@A 0011ccc8     KERNEL:idt.obj

 entry point at        0000:00000000

 Static symbols

 0002:fffeca00       __guard_fids__             00100000     LIBCMT:std_type_info_static.obj
 0001:fffffd08       $LN15                      00100108     GameEngine:Collider.obj
 0001:fffffd18       $LN24                      00100118     GameEngine:Collider.obj
 0001:fffffd24       $LN29                      00100124     GameEngine:Collider.obj
 0001:00000000       ??__E?m_stride@GL@gl@@2IA@@YAXXZ 00100400 f   GL:GL.obj
 0001:00000010       ??__Elightsources@gl@@YAXXZ 00100410 f   GL:GL.obj
 0001:00000040       ??__Emat_projection@gl@@YAXXZ 00100440 f   GL:GL.obj
 0001:00000050       ??__Emat_stack@gl@@YAXXZ   00100450 f   GL:GL.obj
 0001:00000080       ??__Emat_viewmodel@gl@@YAXXZ 00100480 f   GL:GL.obj
 0001:00000090       ??__Elast_mouse_pos@@YAXXZ 00100490 f   GameEngine:Engine.obj
 0001:000000a0       ??__Eb@@YAXXZ              001004a0 f   GameEngine:BoxCollider.obj
 0001:000000b0       ??__Ec@@YAXXZ              001004b0 f   GameEngine:BoxCollider.obj
 0001:000000c0       ??__Ed@@YAXXZ              001004c0 f   GameEngine:BoxCollider.obj
 0001:000000d0       ??__Ev@@YAXXZ              001004d0 f   GameEngine:BoxCollider.obj
 0001:000000e0       ??__Ecols@@YAXXZ           001004e0 f   GameEngine:Collision.obj
 0001:00002388       $LN28                      00102788     tcpsession.obj
 0001:0000aa04       $LN29                      0010ae04     GameEngine:BoxCollider.obj
 0001:0000abd8       $LN15                      0010afd8     GameEngine:BoxCollider.obj
 0001:0000ad08       $LN24                      0010b108     GameEngine:BoxCollider.obj
 0001:0000bb08       $LN70                      0010bf08     GameEngine:BoxCollider.obj
 0001:00010788       $LN49                      00110b88     Lib:stdio.obj
 0001:000107a4       $LN44                      00110ba4     Lib:stdio.obj
 0001:00010c48       $LN28                      00111048     KERNEL:debug.obj
 0001:00010d98       $LN21                      00111198     KERNEL:debug.obj
 0001:00011750       $LN59                      00111b50     KERNEL:keyboard.obj
 0001:00011778       $LN60                      00111b78     KERNEL:keyboard.obj
 0001:000117a8       $LN61                      00111ba8     KERNEL:keyboard.obj
 0001:000117e0       $LN56                      00111be0     KERNEL:keyboard.obj
 0002:000004a8       ?scancodes@@3QBW4KEYCODE@@B 00113aa8     KERNEL:keyboard.obj
 0003:00000008       ?DEFAULT_FONT@@3PAEA       00114408     3DGame:3DGame.obj
 0003:00001008       ?DEFAULT_FONT@@3PAEA       00115408     3DGame:MyBox.obj
 0003:00002008       ?DEFAULT_FONT@@3PAEA       00116408     3DGame:Thing.obj
 0003:00003024       ?next@@3KA                 00117424     Lib:math.obj
 0003:00003030       ?DEFAULT_FONT@@3PAEA       00117430     KERNEL:vbe.obj
 0004:00000000       ??m_stride$initializer$@GL@gl@@2P6AXXZA@@3P6AXXZA 0011ce00     GL:GL.obj
 0004:00000004       ?lightsources$initializer$@gl@@3P6AXXZA 0011ce04     GL:GL.obj
 0004:00000008       ?mat_projection$initializer$@gl@@3P6AXXZA 0011ce08     GL:GL.obj
 0004:0000000c       ?mat_viewmodel$initializer$@gl@@3P6AXXZA 0011ce0c     GL:GL.obj
 0004:00000010       ?mat_stack$initializer$@gl@@3P6AXXZA 0011ce10     GL:GL.obj
 0004:00000014       ?last_mouse_pos$initializer$@@3P6AXXZA 0011ce14     GameEngine:Engine.obj
 0004:00000018       ?v$initializer$@@3P6AXXZA  0011ce18     GameEngine:BoxCollider.obj
 0004:0000001c       ?c$initializer$@@3P6AXXZA  0011ce1c     GameEngine:BoxCollider.obj
 0004:00000020       ?b$initializer$@@3P6AXXZA  0011ce20     GameEngine:BoxCollider.obj
 0004:00000024       ?d$initializer$@@3P6AXXZA  0011ce24     GameEngine:BoxCollider.obj
 0004:00000028       ?cols$initializer$@@3P6AXXZA 0011ce28     GameEngine:Collision.obj
